00000000  7F45              jg 0x47
00000002  4C                dec esp
00000003  46                inc esi
00000004  0101              add [ecx],eax
00000006  0100              add [eax],eax
00000008  0000              add [eax],al
0000000A  0000              add [eax],al
0000000C  0000              add [eax],al
0000000E  0000              add [eax],al
00000010  0200              add al,[eax]
00000012  0300              add eax,[eax]
00000014  0100              add [eax],eax
00000016  0000              add [eax],al
00000018  E082              loopne 0xffffff9c
0000001A  0408              add al,0x8
0000001C  3400              xor al,0x0
0000001E  0000              add [eax],al
00000020  B817000000        mov eax,0x17
00000025  0000              add [eax],al
00000027  003400            add [eax+eax],dh
0000002A  2000              and [eax],al
0000002C  0900              or [eax],eax
0000002E  2800              sub [eax],al
00000030  1F                pop ds
00000031  001C00            add [eax+eax],bl
00000034  06                push es
00000035  0000              add [eax],al
00000037  003400            add [eax+eax],dh
0000003A  0000              add [eax],al
0000003C  3480              xor al,0x80
0000003E  0408              add al,0x8
00000040  3480              xor al,0x80
00000042  0408              add al,0x8
00000044  2001              and [ecx],al
00000046  0000              add [eax],al
00000048  2001              and [ecx],al
0000004A  0000              add [eax],al
0000004C  0500000004        add eax,0x4000000
00000051  0000              add [eax],al
00000053  0003              add [ebx],al
00000055  0000              add [eax],al
00000057  00540100          add [ecx+eax+0x0],dl
0000005B  00548104          add [ecx+eax*4+0x4],dl
0000005F  08548104          or [ecx+eax*4+0x4],dl
00000063  0813              or [ebx],dl
00000065  0000              add [eax],al
00000067  0013              add [ebx],dl
00000069  0000              add [eax],al
0000006B  000400            add [eax+eax],al
0000006E  0000              add [eax],al
00000070  0100              add [eax],eax
00000072  0000              add [eax],al
00000074  0100              add [eax],eax
00000076  0000              add [eax],al
00000078  0000              add [eax],al
0000007A  0000              add [eax],al
0000007C  008004080080      add [eax-0x7ffff7fc],al
00000082  0408              add al,0x8
00000084  5C                pop esp
00000085  0500005C05        add eax,0x55c0000
0000008A  0000              add [eax],al
0000008C  0500000000        add eax,0x0
00000091  1000              adc [eax],al
00000093  0001              add [ecx],al
00000095  0000              add [eax],al
00000097  0008              add [eax],cl
00000099  0F0000            sldt [eax]
0000009C  089F0408089F      or [edi-0x60f7f7fc],bl
000000A2  0408              add al,0x8
000000A4  1001              adc [ecx],al
000000A6  0000              add [eax],al
000000A8  1401              adc al,0x1
000000AA  0000              add [eax],al
000000AC  06                push es
000000AD  0000              add [eax],al
000000AF  0000              add [eax],al
000000B1  1000              adc [eax],al
000000B3  0002              add [edx],al
000000B5  0000              add [eax],al
000000B7  00140F            add [edi+ecx],dl
000000BA  0000              add [eax],al
000000BC  149F              adc al,0x9f
000000BE  0408              add al,0x8
000000C0  149F              adc al,0x9f
000000C2  0408              add al,0x8
000000C4  E8000000E8        call dword 0xe80000c9
000000C9  0000              add [eax],al
000000CB  0006              add [esi],al
000000CD  0000              add [eax],al
000000CF  000400            add [eax+eax],al
000000D2  0000              add [eax],al
000000D4  0400              add al,0x0
000000D6  0000              add [eax],al
000000D8  6801000068        push dword 0x68000001
000000DD  81040868810408    add dword [eax+ecx],0x8048168
000000E4  44                inc esp
000000E5  0000              add [eax],al
000000E7  00440000          add [eax+eax+0x0],al
000000EB  000400            add [eax+eax],al
000000EE  0000              add [eax],al
000000F0  0400              add al,0x0
000000F2  0000              add [eax],al
000000F4  50                push eax
000000F5  E574              in eax,0x74
000000F7  647004            fs jo 0xfe
000000FA  0000              add [eax],al
000000FC  7084              jo 0x82
000000FE  0408              add al,0x8
00000100  7084              jo 0x86
00000102  0408              add al,0x8
00000104  2C00              sub al,0x0
00000106  0000              add [eax],al
00000108  2C00              sub al,0x0
0000010A  0000              add [eax],al
0000010C  0400              add al,0x0
0000010E  0000              add [eax],al
00000110  0400              add al,0x0
00000112  0000              add [eax],al
00000114  51                push ecx
00000115  E574              in eax,0x74
00000117  640000            add [fs:eax],al
0000011A  0000              add [eax],al
0000011C  0000              add [eax],al
0000011E  0000              add [eax],al
00000120  0000              add [eax],al
00000122  0000              add [eax],al
00000124  0000              add [eax],al
00000126  0000              add [eax],al
00000128  0000              add [eax],al
0000012A  0000              add [eax],al
0000012C  06                push es
0000012D  0000              add [eax],al
0000012F  0010              add [eax],dl
00000131  0000              add [eax],al
00000133  0052E5            add [edx-0x1b],dl
00000136  7464              jz 0x19c
00000138  080F              or [edi],cl
0000013A  0000              add [eax],al
0000013C  089F0408089F      or [edi-0x60f7f7fc],bl
00000142  0408              add al,0x8
00000144  F8                clc
00000145  0000              add [eax],al
00000147  00F8              add al,bh
00000149  0000              add [eax],al
0000014B  000400            add [eax+eax],al
0000014E  0000              add [eax],al
00000150  0100              add [eax],eax
00000152  0000              add [eax],al
00000154  2F                das
00000155  6C                insb
00000156  69622F6C642D6C    imul esp,[edx+0x2f],dword 0x6c2d646c
0000015D  696E75782E736F    imul ebp,[esi+0x75],dword 0x6f732e78
00000164  2E3200            xor al,[cs:eax]
00000167  000400            add [eax+eax],al
0000016A  0000              add [eax],al
0000016C  1000              adc [eax],al
0000016E  0000              add [eax],al
00000170  0100              add [eax],eax
00000172  0000              add [eax],al
00000174  47                inc edi
00000175  4E                dec esi
00000176  55                push ebp
00000177  0000              add [eax],al
00000179  0000              add [eax],al
0000017B  0002              add [edx],al
0000017D  0000              add [eax],al
0000017F  0006              add [esi],al
00000181  0000              add [eax],al
00000183  0020              add [eax],ah
00000185  0000              add [eax],al
00000187  000400            add [eax+eax],al
0000018A  0000              add [eax],al
0000018C  1400              adc al,0x0
0000018E  0000              add [eax],al
00000190  0300              add eax,[eax]
00000192  0000              add [eax],al
00000194  47                inc edi
00000195  4E                dec esi
00000196  55                push ebp
00000197  00545CF6          add [esp+ebx*2-0xa],dl
0000019B  BC3AD4E94C        mov esp,0x4ce9d43a
000001A0  1BDF              sbb ebx,edi
000001A2  AF                scasd
000001A3  0E                push cs
000001A4  AF                scasd
000001A5  7237              jc 0x1de
000001A7  2466              and al,0x66
000001A9  42                inc edx
000001AA  24B5              and al,0xb5
000001AC  0200              add al,[eax]
000001AE  0000              add [eax],al
000001B0  0300              add eax,[eax]
000001B2  0000              add [eax],al
000001B4  0100              add [eax],eax
000001B6  0000              add [eax],al
000001B8  0500000000        add eax,0x0
000001BD  2000              and [eax],al
000001BF  2000              and [eax],al
000001C1  0000              add [eax],al
000001C3  0003              add [ebx],al
000001C5  0000              add [eax],al
000001C7  00AD4BE3C000      add [ebp+0xc0e34b],ch
000001CD  0000              add [eax],al
000001CF  0000              add [eax],al
000001D1  0000              add [eax],al
000001D3  0000              add [eax],al
000001D5  0000              add [eax],al
000001D7  0000              add [eax],al
000001D9  0000              add [eax],al
000001DB  002C00            add [eax+eax],ch
000001DE  0000              add [eax],al
000001E0  0000              add [eax],al
000001E2  0000              add [eax],al
000001E4  0000              add [eax],al
000001E6  0000              add [eax],al
000001E8  2000              and [eax],al
000001EA  0000              add [eax],al
000001EC  1A00              sbb al,[eax]
000001EE  0000              add [eax],al
000001F0  0000              add [eax],al
000001F2  0000              add [eax],al
000001F4  0000              add [eax],al
000001F6  0000              add [eax],al
000001F8  1200              adc al,[eax]
000001FA  0000              add [eax],al
000001FC  0B00              or eax,[eax]
000001FE  0000              add [eax],al
00000200  6C                insb
00000201  840408            test [eax+ecx],al
00000204  0400              add al,0x0
00000206  0000              add [eax],al
00000208  1100              adc [eax],eax
0000020A  1000              adc [eax],al
0000020C  006C6962          add [ecx+ebp*2+0x62],ch
00000210  632E              arpl [esi],bp
00000212  736F              jnc 0x283
00000214  2E36005F49        add [ss:edi+0x49],bl
00000219  4F                dec edi
0000021A  5F                pop edi
0000021B  7374              jnc 0x291
0000021D  64696E5F75736564  imul ebp,[fs:esi+0x5f],dword 0x64657375
00000225  005F5F            add [edi+0x5f],bl
00000228  6C                insb
00000229  6962635F737461    imul esp,[edx+0x63],dword 0x6174735f
00000230  7274              jc 0x2a6
00000232  5F                pop edi
00000233  6D                insd
00000234  61                popad
00000235  696E005F5F676D    imul ebp,[esi+0x0],dword 0x6d675f5f
0000023C  6F                outsd
0000023D  6E                outsb
0000023E  5F                pop edi
0000023F  7374              jnc 0x2b5
00000241  61                popad
00000242  7274              jc 0x2b8
00000244  5F                pop edi
00000245  5F                pop edi
00000246  00474C            add [edi+0x4c],al
00000249  49                dec ecx
0000024A  42                inc edx
0000024B  43                inc ebx
0000024C  5F                pop edi
0000024D  322E              xor ch,[esi]
0000024F  3000              xor [eax],al
00000251  0000              add [eax],al
00000253  0000              add [eax],al
00000255  0002              add [edx],al
00000257  0001              add [ecx],al
00000259  0000              add [eax],al
0000025B  0001              add [ecx],al
0000025D  0001              add [ecx],al
0000025F  0001              add [ecx],al
00000261  0000              add [eax],al
00000263  0010              add [eax],dl
00000265  0000              add [eax],al
00000267  0000              add [eax],al
00000269  0000              add [eax],al
0000026B  0010              add [eax],dl
0000026D  69690D00000200    imul ebp,[ecx+0xd],dword 0x20000
00000274  3B00              cmp eax,[eax]
00000276  0000              add [eax],al
00000278  0000              add [eax],al
0000027A  0000              add [eax],al
0000027C  FC                cld
0000027D  9F                lahf
0000027E  0408              add al,0x8
00000280  06                push es
00000281  0100              add [eax],eax
00000283  000CA0            add [eax],cl
00000286  0408              add al,0x8
00000288  07                pop es
00000289  0200              add al,[eax]
0000028B  005383            add [ebx-0x7d],dl
0000028E  EC                in al,dx
0000028F  08E8              or al,ch
00000291  7B00              jpo 0x293
00000293  0000              add [eax],al
00000295  81C36B1D0000      add ebx,0x1d6b
0000029B  8B83FCFFFFFF      mov eax,[ebx-0x4]
000002A1  85C0              test eax,eax
000002A3  7405              jz 0x2aa
000002A5  E826000000        call dword 0x2d0
000002AA  83C408            add esp,byte +0x8
000002AD  5B                pop ebx
000002AE  C3                ret
000002AF  00FF              add bh,bh
000002B1  3504A00408        xor eax,0x804a004
000002B6  FF2508A00408      jmp dword [dword 0x804a008]
000002BC  0000              add [eax],al
000002BE  0000              add [eax],al
000002C0  FF250CA00408      jmp dword [dword 0x804a00c]
000002C6  6800000000        push dword 0x0
000002CB  E9E0FFFFFF        jmp dword 0x2b0
000002D0  FF25FC9F0408      jmp dword [dword 0x8049ffc]
000002D6  6690              xchg ax,ax
000002D8  0000              add [eax],al
000002DA  0000              add [eax],al
000002DC  0000              add [eax],al
000002DE  0000              add [eax],al
000002E0  31ED              xor ebp,ebp
000002E2  5E                pop esi
000002E3  89E1              mov ecx,esp
000002E5  83E4F0            and esp,byte -0x10
000002E8  50                push eax
000002E9  54                push esp
000002EA  52                push edx
000002EB  6850840408        push dword 0x8048450
000002F0  68F0830408        push dword 0x80483f0
000002F5  51                push ecx
000002F6  56                push esi
000002F7  68DB830408        push dword 0x80483db
000002FC  E8BFFFFFFF        call dword 0x2c0
00000301  F4                hlt
00000302  6690              xchg ax,ax
00000304  6690              xchg ax,ax
00000306  6690              xchg ax,ax
00000308  6690              xchg ax,ax
0000030A  6690              xchg ax,ax
0000030C  6690              xchg ax,ax
0000030E  6690              xchg ax,ax
00000310  8B1C24            mov ebx,[esp]
00000313  C3                ret
00000314  6690              xchg ax,ax
00000316  6690              xchg ax,ax
00000318  6690              xchg ax,ax
0000031A  6690              xchg ax,ax
0000031C  6690              xchg ax,ax
0000031E  6690              xchg ax,ax
00000320  B81BA00408        mov eax,0x804a01b
00000325  2D18A00408        sub eax,0x804a018
0000032A  83F806            cmp eax,byte +0x6
0000032D  761A              jna 0x349
0000032F  B800000000        mov eax,0x0
00000334  85C0              test eax,eax
00000336  7411              jz 0x349
00000338  55                push ebp
00000339  89E5              mov ebp,esp
0000033B  83EC14            sub esp,byte +0x14
0000033E  6818A00408        push dword 0x804a018
00000343  FFD0              call eax
00000345  83C410            add esp,byte +0x10
00000348  C9                leave
00000349  F3C3              rep ret
0000034B  90                nop
0000034C  8D742600          lea esi,[esi+0x0]
00000350  B818A00408        mov eax,0x804a018
00000355  2D18A00408        sub eax,0x804a018
0000035A  C1F802            sar eax,byte 0x2
0000035D  89C2              mov edx,eax
0000035F  C1EA1F            shr edx,byte 0x1f
00000362  01D0              add eax,edx
00000364  D1F8              sar eax,1
00000366  741B              jz 0x383
00000368  BA00000000        mov edx,0x0
0000036D  85D2              test edx,edx
0000036F  7412              jz 0x383
00000371  55                push ebp
00000372  89E5              mov ebp,esp
00000374  83EC10            sub esp,byte +0x10
00000377  50                push eax
00000378  6818A00408        push dword 0x804a018
0000037D  FFD2              call edx
0000037F  83C410            add esp,byte +0x10
00000382  C9                leave
00000383  F3C3              rep ret
00000385  8D742600          lea esi,[esi+0x0]
00000389  8DBC2700000000    lea edi,[edi+0x0]
00000390  803D18A0040800    cmp byte [dword 0x804a018],0x0
00000397  7513              jnz 0x3ac
00000399  55                push ebp
0000039A  89E5              mov ebp,esp
0000039C  83EC08            sub esp,byte +0x8
0000039F  E87CFFFFFF        call dword 0x320
000003A4  C60518A0040801    mov byte [dword 0x804a018],0x1
000003AB  C9                leave
000003AC  F3C3              rep ret
000003AE  6690              xchg ax,ax
000003B0  B8109F0408        mov eax,0x8049f10
000003B5  8B10              mov edx,[eax]
000003B7  85D2              test edx,edx
000003B9  7505              jnz 0x3c0
000003BB  EB93              jmp short 0x350
000003BD  8D7600            lea esi,[esi+0x0]
000003C0  BA00000000        mov edx,0x0
000003C5  85D2              test edx,edx
000003C7  74F2              jz 0x3bb
000003C9  55                push ebp
000003CA  89E5              mov ebp,esp
000003CC  83EC14            sub esp,byte +0x14
000003CF  50                push eax
000003D0  FFD2              call edx
000003D2  83C410            add esp,byte +0x10
000003D5  C9                leave
000003D6  E975FFFFFF        jmp dword 0x350
000003DB  55                push ebp
000003DC  89E5              mov ebp,esp
000003DE  83EC10            sub esp,byte +0x10
000003E1  C745FC23010000    mov dword [ebp-0x4],0x123
000003E8  B800000000        mov eax,0x0
000003ED  C9                leave
000003EE  C3                ret
000003EF  90                nop
000003F0  55                push ebp
000003F1  57                push edi
000003F2  56                push esi
000003F3  53                push ebx
000003F4  E817FFFFFF        call dword 0x310
000003F9  81C3071C0000      add ebx,0x1c07
000003FF  83EC0C            sub esp,byte +0xc
00000402  8B6C2420          mov ebp,[esp+0x20]
00000406  8DB30CFFFFFF      lea esi,[ebx-0xf4]
0000040C  E87BFEFFFF        call dword 0x28c
00000411  8D8308FFFFFF      lea eax,[ebx-0xf8]
00000417  29C6              sub esi,eax
00000419  C1FE02            sar esi,byte 0x2
0000041C  85F6              test esi,esi
0000041E  7425              jz 0x445
00000420  31FF              xor edi,edi
00000422  8DB600000000      lea esi,[esi+0x0]
00000428  83EC04            sub esp,byte +0x4
0000042B  FF74242C          push dword [esp+0x2c]
0000042F  FF74242C          push dword [esp+0x2c]
00000433  55                push ebp
00000434  FF94BB08FFFFFF    call dword [ebx+edi*4-0xf8]
0000043B  83C701            add edi,byte +0x1
0000043E  83C410            add esp,byte +0x10
00000441  39F7              cmp edi,esi
00000443  75E3              jnz 0x428
00000445  83C40C            add esp,byte +0xc
00000448  5B                pop ebx
00000449  5E                pop esi
0000044A  5F                pop edi
0000044B  5D                pop ebp
0000044C  C3                ret
0000044D  8D7600            lea esi,[esi+0x0]
00000450  F3C3              rep ret
00000452  0000              add [eax],al
00000454  53                push ebx
00000455  83EC08            sub esp,byte +0x8
00000458  E8B3FEFFFF        call dword 0x310
0000045D  81C3A31B0000      add ebx,0x1ba3
00000463  83C408            add esp,byte +0x8
00000466  5B                pop ebx
00000467  C3                ret
00000468  0300              add eax,[eax]
0000046A  0000              add [eax],al
0000046C  0100              add [eax],eax
0000046E  0200              add al,[eax]
00000470  011B              add [ebx],ebx
00000472  033B              add edi,[ebx]
00000474  2800              sub [eax],al
00000476  0000              add [eax],al
00000478  0400              add al,0x0
0000047A  0000              add [eax],al
0000047C  40                inc eax
0000047D  FE                db 0xfe
0000047E  FF                db 0xff
0000047F  FF440000          inc dword [eax+eax+0x0]
00000483  006BFF            add [ebx-0x1],ch
00000486  FF                db 0xff
00000487  FF6800            jmp dword far [eax+0x0]
0000048A  0000              add [eax],al
0000048C  80FFFF            cmp bh,0xff
0000048F  FF88000000E0      dec dword [eax-0x20000000]
00000495  FF                db 0xff
00000496  FF                db 0xff
00000497  FFD4              call esp
00000499  0000              add [eax],al
0000049B  001400            add [eax+eax],dl
0000049E  0000              add [eax],al
000004A0  0000              add [eax],al
000004A2  0000              add [eax],al
000004A4  017A52            add [edx+0x52],edi
000004A7  0001              add [ecx],al
000004A9  7C08              jl 0x4b3
000004AB  011B              add [ebx],ebx
000004AD  0C04              or al,0x4
000004AF  0488              add al,0x88
000004B1  0100              add [eax],eax
000004B3  0020              add [eax],ah
000004B5  0000              add [eax],al
000004B7  001C00            add [eax+eax],bl
000004BA  0000              add [eax],al
000004BC  F4                hlt
000004BD  FD                std
000004BE  FF                db 0xff
000004BF  FF20              jmp dword [eax]
000004C1  0000              add [eax],al
000004C3  0000              add [eax],al
000004C5  0E                push cs
000004C6  08460E            or [esi+0xe],al
000004C9  0C4A              or al,0x4a
000004CB  0F0B              ud2
000004CD  7404              jz 0x4d3
000004CF  7800              js 0x4d1
000004D1  3F                aas
000004D2  1A3B              sbb bh,[ebx]
000004D4  2A32              sub dh,[edx]
000004D6  2422              and al,0x22
000004D8  1C00              sbb al,0x0
000004DA  0000              add [eax],al
000004DC  40                inc eax
000004DD  0000              add [eax],al
000004DF  00FB              add bl,bh
000004E1  FE                db 0xfe
000004E2  FF                db 0xff
000004E3  FF1400            call dword [eax+eax]
000004E6  0000              add [eax],al
000004E8  00410E            add [ecx+0xe],al
000004EB  088502420D05      or [ebp+0x50d4202],al
000004F1  50                push eax
000004F2  C50C04            lds ecx,[esp+eax]
000004F5  0400              add al,0x0
000004F7  004800            add [eax+0x0],cl
000004FA  0000              add [eax],al
000004FC  60                pushad
000004FD  0000              add [eax],al
000004FF  00F0              add al,dh
00000501  FE                db 0xfe
00000502  FF                db 0xff
00000503  FF5D00            call dword far [ebp+0x0]
00000506  0000              add [eax],al
00000508  00410E            add [ecx+0xe],al
0000050B  088502410E0C      or [ebp+0xc0e4102],al
00000511  8703              xchg eax,[ebx]
00000513  41                inc ecx
00000514  0E                push cs
00000515  108604410E14      adc [esi+0x140e4104],al
0000051B  83054E0E20690E    add dword [dword 0x69200e4e],byte +0xe
00000522  2444              and al,0x44
00000524  0E                push cs
00000525  28440E2C          sub [esi+ecx+0x2c],al
00000529  41                inc ecx
0000052A  0E                push cs
0000052B  304D0E            xor [ebp+0xe],cl
0000052E  20470E            and [edi+0xe],al
00000531  1441              adc al,0x41
00000533  C3                ret
00000534  0E                push cs
00000535  1041C6            adc [ecx-0x3a],al
00000538  0E                push cs
00000539  0C41              or al,0x41
0000053B  C7                db 0xc7
0000053C  0E                push cs
0000053D  0841C5            or [ecx-0x3b],al
00000540  0E                push cs
00000541  0400              add al,0x0
00000543  0010              add [eax],dl
00000545  0000              add [eax],al
00000547  00AC00000004FF    add [eax+eax-0xfc0000],ch
0000054E  FF                db 0xff
0000054F  FF02              inc dword [edx]
00000551  0000              add [eax],al
00000553  0000              add [eax],al
00000555  0000              add [eax],al
00000557  0000              add [eax],al
00000559  0000              add [eax],al
0000055B  0000              add [eax],al
0000055D  0000              add [eax],al
0000055F  0000              add [eax],al
00000561  0000              add [eax],al
00000563  0000              add [eax],al
00000565  0000              add [eax],al
00000567  0000              add [eax],al
00000569  0000              add [eax],al
0000056B  0000              add [eax],al
0000056D  0000              add [eax],al
0000056F  0000              add [eax],al
00000571  0000              add [eax],al
00000573  0000              add [eax],al
00000575  0000              add [eax],al
00000577  0000              add [eax],al
00000579  0000              add [eax],al
0000057B  0000              add [eax],al
0000057D  0000              add [eax],al
0000057F  0000              add [eax],al
00000581  0000              add [eax],al
00000583  0000              add [eax],al
00000585  0000              add [eax],al
00000587  0000              add [eax],al
00000589  0000              add [eax],al
0000058B  0000              add [eax],al
0000058D  0000              add [eax],al
0000058F  0000              add [eax],al
00000591  0000              add [eax],al
00000593  0000              add [eax],al
00000595  0000              add [eax],al
00000597  0000              add [eax],al
00000599  0000              add [eax],al
0000059B  0000              add [eax],al
0000059D  0000              add [eax],al
0000059F  0000              add [eax],al
000005A1  0000              add [eax],al
000005A3  0000              add [eax],al
000005A5  0000              add [eax],al
000005A7  0000              add [eax],al
000005A9  0000              add [eax],al
000005AB  0000              add [eax],al
000005AD  0000              add [eax],al
000005AF  0000              add [eax],al
000005B1  0000              add [eax],al
000005B3  0000              add [eax],al
000005B5  0000              add [eax],al
000005B7  0000              add [eax],al
000005B9  0000              add [eax],al
000005BB  0000              add [eax],al
000005BD  0000              add [eax],al
000005BF  0000              add [eax],al
000005C1  0000              add [eax],al
000005C3  0000              add [eax],al
000005C5  0000              add [eax],al
000005C7  0000              add [eax],al
000005C9  0000              add [eax],al
000005CB  0000              add [eax],al
000005CD  0000              add [eax],al
000005CF  0000              add [eax],al
000005D1  0000              add [eax],al
000005D3  0000              add [eax],al
000005D5  0000              add [eax],al
000005D7  0000              add [eax],al
000005D9  0000              add [eax],al
000005DB  0000              add [eax],al
000005DD  0000              add [eax],al
000005DF  0000              add [eax],al
000005E1  0000              add [eax],al
000005E3  0000              add [eax],al
000005E5  0000              add [eax],al
000005E7  0000              add [eax],al
000005E9  0000              add [eax],al
000005EB  0000              add [eax],al
000005ED  0000              add [eax],al
000005EF  0000              add [eax],al
000005F1  0000              add [eax],al
000005F3  0000              add [eax],al
000005F5  0000              add [eax],al
000005F7  0000              add [eax],al
000005F9  0000              add [eax],al
000005FB  0000              add [eax],al
000005FD  0000              add [eax],al
000005FF  0000              add [eax],al
00000601  0000              add [eax],al
00000603  0000              add [eax],al
00000605  0000              add [eax],al
00000607  0000              add [eax],al
00000609  0000              add [eax],al
0000060B  0000              add [eax],al
0000060D  0000              add [eax],al
0000060F  0000              add [eax],al
00000611  0000              add [eax],al
00000613  0000              add [eax],al
00000615  0000              add [eax],al
00000617  0000              add [eax],al
00000619  0000              add [eax],al
0000061B  0000              add [eax],al
0000061D  0000              add [eax],al
0000061F  0000              add [eax],al
00000621  0000              add [eax],al
00000623  0000              add [eax],al
00000625  0000              add [eax],al
00000627  0000              add [eax],al
00000629  0000              add [eax],al
0000062B  0000              add [eax],al
0000062D  0000              add [eax],al
0000062F  0000              add [eax],al
00000631  0000              add [eax],al
00000633  0000              add [eax],al
00000635  0000              add [eax],al
00000637  0000              add [eax],al
00000639  0000              add [eax],al
0000063B  0000              add [eax],al
0000063D  0000              add [eax],al
0000063F  0000              add [eax],al
00000641  0000              add [eax],al
00000643  0000              add [eax],al
00000645  0000              add [eax],al
00000647  0000              add [eax],al
00000649  0000              add [eax],al
0000064B  0000              add [eax],al
0000064D  0000              add [eax],al
0000064F  0000              add [eax],al
00000651  0000              add [eax],al
00000653  0000              add [eax],al
00000655  0000              add [eax],al
00000657  0000              add [eax],al
00000659  0000              add [eax],al
0000065B  0000              add [eax],al
0000065D  0000              add [eax],al
0000065F  0000              add [eax],al
00000661  0000              add [eax],al
00000663  0000              add [eax],al
00000665  0000              add [eax],al
00000667  0000              add [eax],al
00000669  0000              add [eax],al
0000066B  0000              add [eax],al
0000066D  0000              add [eax],al
0000066F  0000              add [eax],al
00000671  0000              add [eax],al
00000673  0000              add [eax],al
00000675  0000              add [eax],al
00000677  0000              add [eax],al
00000679  0000              add [eax],al
0000067B  0000              add [eax],al
0000067D  0000              add [eax],al
0000067F  0000              add [eax],al
00000681  0000              add [eax],al
00000683  0000              add [eax],al
00000685  0000              add [eax],al
00000687  0000              add [eax],al
00000689  0000              add [eax],al
0000068B  0000              add [eax],al
0000068D  0000              add [eax],al
0000068F  0000              add [eax],al
00000691  0000              add [eax],al
00000693  0000              add [eax],al
00000695  0000              add [eax],al
00000697  0000              add [eax],al
00000699  0000              add [eax],al
0000069B  0000              add [eax],al
0000069D  0000              add [eax],al
0000069F  0000              add [eax],al
000006A1  0000              add [eax],al
000006A3  0000              add [eax],al
000006A5  0000              add [eax],al
000006A7  0000              add [eax],al
000006A9  0000              add [eax],al
000006AB  0000              add [eax],al
000006AD  0000              add [eax],al
000006AF  0000              add [eax],al
000006B1  0000              add [eax],al
000006B3  0000              add [eax],al
000006B5  0000              add [eax],al
000006B7  0000              add [eax],al
000006B9  0000              add [eax],al
000006BB  0000              add [eax],al
000006BD  0000              add [eax],al
000006BF  0000              add [eax],al
000006C1  0000              add [eax],al
000006C3  0000              add [eax],al
000006C5  0000              add [eax],al
000006C7  0000              add [eax],al
000006C9  0000              add [eax],al
000006CB  0000              add [eax],al
000006CD  0000              add [eax],al
000006CF  0000              add [eax],al
000006D1  0000              add [eax],al
000006D3  0000              add [eax],al
000006D5  0000              add [eax],al
000006D7  0000              add [eax],al
000006D9  0000              add [eax],al
000006DB  0000              add [eax],al
000006DD  0000              add [eax],al
000006DF  0000              add [eax],al
000006E1  0000              add [eax],al
000006E3  0000              add [eax],al
000006E5  0000              add [eax],al
000006E7  0000              add [eax],al
000006E9  0000              add [eax],al
000006EB  0000              add [eax],al
000006ED  0000              add [eax],al
000006EF  0000              add [eax],al
000006F1  0000              add [eax],al
000006F3  0000              add [eax],al
000006F5  0000              add [eax],al
000006F7  0000              add [eax],al
000006F9  0000              add [eax],al
000006FB  0000              add [eax],al
000006FD  0000              add [eax],al
000006FF  0000              add [eax],al
00000701  0000              add [eax],al
00000703  0000              add [eax],al
00000705  0000              add [eax],al
00000707  0000              add [eax],al
00000709  0000              add [eax],al
0000070B  0000              add [eax],al
0000070D  0000              add [eax],al
0000070F  0000              add [eax],al
00000711  0000              add [eax],al
00000713  0000              add [eax],al
00000715  0000              add [eax],al
00000717  0000              add [eax],al
00000719  0000              add [eax],al
0000071B  0000              add [eax],al
0000071D  0000              add [eax],al
0000071F  0000              add [eax],al
00000721  0000              add [eax],al
00000723  0000              add [eax],al
00000725  0000              add [eax],al
00000727  0000              add [eax],al
00000729  0000              add [eax],al
0000072B  0000              add [eax],al
0000072D  0000              add [eax],al
0000072F  0000              add [eax],al
00000731  0000              add [eax],al
00000733  0000              add [eax],al
00000735  0000              add [eax],al
00000737  0000              add [eax],al
00000739  0000              add [eax],al
0000073B  0000              add [eax],al
0000073D  0000              add [eax],al
0000073F  0000              add [eax],al
00000741  0000              add [eax],al
00000743  0000              add [eax],al
00000745  0000              add [eax],al
00000747  0000              add [eax],al
00000749  0000              add [eax],al
0000074B  0000              add [eax],al
0000074D  0000              add [eax],al
0000074F  0000              add [eax],al
00000751  0000              add [eax],al
00000753  0000              add [eax],al
00000755  0000              add [eax],al
00000757  0000              add [eax],al
00000759  0000              add [eax],al
0000075B  0000              add [eax],al
0000075D  0000              add [eax],al
0000075F  0000              add [eax],al
00000761  0000              add [eax],al
00000763  0000              add [eax],al
00000765  0000              add [eax],al
00000767  0000              add [eax],al
00000769  0000              add [eax],al
0000076B  0000              add [eax],al
0000076D  0000              add [eax],al
0000076F  0000              add [eax],al
00000771  0000              add [eax],al
00000773  0000              add [eax],al
00000775  0000              add [eax],al
00000777  0000              add [eax],al
00000779  0000              add [eax],al
0000077B  0000              add [eax],al
0000077D  0000              add [eax],al
0000077F  0000              add [eax],al
00000781  0000              add [eax],al
00000783  0000              add [eax],al
00000785  0000              add [eax],al
00000787  0000              add [eax],al
00000789  0000              add [eax],al
0000078B  0000              add [eax],al
0000078D  0000              add [eax],al
0000078F  0000              add [eax],al
00000791  0000              add [eax],al
00000793  0000              add [eax],al
00000795  0000              add [eax],al
00000797  0000              add [eax],al
00000799  0000              add [eax],al
0000079B  0000              add [eax],al
0000079D  0000              add [eax],al
0000079F  0000              add [eax],al
000007A1  0000              add [eax],al
000007A3  0000              add [eax],al
000007A5  0000              add [eax],al
000007A7  0000              add [eax],al
000007A9  0000              add [eax],al
000007AB  0000              add [eax],al
000007AD  0000              add [eax],al
000007AF  0000              add [eax],al
000007B1  0000              add [eax],al
000007B3  0000              add [eax],al
000007B5  0000              add [eax],al
000007B7  0000              add [eax],al
000007B9  0000              add [eax],al
000007BB  0000              add [eax],al
000007BD  0000              add [eax],al
000007BF  0000              add [eax],al
000007C1  0000              add [eax],al
000007C3  0000              add [eax],al
000007C5  0000              add [eax],al
000007C7  0000              add [eax],al
000007C9  0000              add [eax],al
000007CB  0000              add [eax],al
000007CD  0000              add [eax],al
000007CF  0000              add [eax],al
000007D1  0000              add [eax],al
000007D3  0000              add [eax],al
000007D5  0000              add [eax],al
000007D7  0000              add [eax],al
000007D9  0000              add [eax],al
000007DB  0000              add [eax],al
000007DD  0000              add [eax],al
000007DF  0000              add [eax],al
000007E1  0000              add [eax],al
000007E3  0000              add [eax],al
000007E5  0000              add [eax],al
000007E7  0000              add [eax],al
000007E9  0000              add [eax],al
000007EB  0000              add [eax],al
000007ED  0000              add [eax],al
000007EF  0000              add [eax],al
000007F1  0000              add [eax],al
000007F3  0000              add [eax],al
000007F5  0000              add [eax],al
000007F7  0000              add [eax],al
000007F9  0000              add [eax],al
000007FB  0000              add [eax],al
000007FD  0000              add [eax],al
000007FF  0000              add [eax],al
00000801  0000              add [eax],al
00000803  0000              add [eax],al
00000805  0000              add [eax],al
00000807  0000              add [eax],al
00000809  0000              add [eax],al
0000080B  0000              add [eax],al
0000080D  0000              add [eax],al
0000080F  0000              add [eax],al
00000811  0000              add [eax],al
00000813  0000              add [eax],al
00000815  0000              add [eax],al
00000817  0000              add [eax],al
00000819  0000              add [eax],al
0000081B  0000              add [eax],al
0000081D  0000              add [eax],al
0000081F  0000              add [eax],al
00000821  0000              add [eax],al
00000823  0000              add [eax],al
00000825  0000              add [eax],al
00000827  0000              add [eax],al
00000829  0000              add [eax],al
0000082B  0000              add [eax],al
0000082D  0000              add [eax],al
0000082F  0000              add [eax],al
00000831  0000              add [eax],al
00000833  0000              add [eax],al
00000835  0000              add [eax],al
00000837  0000              add [eax],al
00000839  0000              add [eax],al
0000083B  0000              add [eax],al
0000083D  0000              add [eax],al
0000083F  0000              add [eax],al
00000841  0000              add [eax],al
00000843  0000              add [eax],al
00000845  0000              add [eax],al
00000847  0000              add [eax],al
00000849  0000              add [eax],al
0000084B  0000              add [eax],al
0000084D  0000              add [eax],al
0000084F  0000              add [eax],al
00000851  0000              add [eax],al
00000853  0000              add [eax],al
00000855  0000              add [eax],al
00000857  0000              add [eax],al
00000859  0000              add [eax],al
0000085B  0000              add [eax],al
0000085D  0000              add [eax],al
0000085F  0000              add [eax],al
00000861  0000              add [eax],al
00000863  0000              add [eax],al
00000865  0000              add [eax],al
00000867  0000              add [eax],al
00000869  0000              add [eax],al
0000086B  0000              add [eax],al
0000086D  0000              add [eax],al
0000086F  0000              add [eax],al
00000871  0000              add [eax],al
00000873  0000              add [eax],al
00000875  0000              add [eax],al
00000877  0000              add [eax],al
00000879  0000              add [eax],al
0000087B  0000              add [eax],al
0000087D  0000              add [eax],al
0000087F  0000              add [eax],al
00000881  0000              add [eax],al
00000883  0000              add [eax],al
00000885  0000              add [eax],al
00000887  0000              add [eax],al
00000889  0000              add [eax],al
0000088B  0000              add [eax],al
0000088D  0000              add [eax],al
0000088F  0000              add [eax],al
00000891  0000              add [eax],al
00000893  0000              add [eax],al
00000895  0000              add [eax],al
00000897  0000              add [eax],al
00000899  0000              add [eax],al
0000089B  0000              add [eax],al
0000089D  0000              add [eax],al
0000089F  0000              add [eax],al
000008A1  0000              add [eax],al
000008A3  0000              add [eax],al
000008A5  0000              add [eax],al
000008A7  0000              add [eax],al
000008A9  0000              add [eax],al
000008AB  0000              add [eax],al
000008AD  0000              add [eax],al
000008AF  0000              add [eax],al
000008B1  0000              add [eax],al
000008B3  0000              add [eax],al
000008B5  0000              add [eax],al
000008B7  0000              add [eax],al
000008B9  0000              add [eax],al
000008BB  0000              add [eax],al
000008BD  0000              add [eax],al
000008BF  0000              add [eax],al
000008C1  0000              add [eax],al
000008C3  0000              add [eax],al
000008C5  0000              add [eax],al
000008C7  0000              add [eax],al
000008C9  0000              add [eax],al
000008CB  0000              add [eax],al
000008CD  0000              add [eax],al
000008CF  0000              add [eax],al
000008D1  0000              add [eax],al
000008D3  0000              add [eax],al
000008D5  0000              add [eax],al
000008D7  0000              add [eax],al
000008D9  0000              add [eax],al
000008DB  0000              add [eax],al
000008DD  0000              add [eax],al
000008DF  0000              add [eax],al
000008E1  0000              add [eax],al
000008E3  0000              add [eax],al
000008E5  0000              add [eax],al
000008E7  0000              add [eax],al
000008E9  0000              add [eax],al
000008EB  0000              add [eax],al
000008ED  0000              add [eax],al
000008EF  0000              add [eax],al
000008F1  0000              add [eax],al
000008F3  0000              add [eax],al
000008F5  0000              add [eax],al
000008F7  0000              add [eax],al
000008F9  0000              add [eax],al
000008FB  0000              add [eax],al
000008FD  0000              add [eax],al
000008FF  0000              add [eax],al
00000901  0000              add [eax],al
00000903  0000              add [eax],al
00000905  0000              add [eax],al
00000907  0000              add [eax],al
00000909  0000              add [eax],al
0000090B  0000              add [eax],al
0000090D  0000              add [eax],al
0000090F  0000              add [eax],al
00000911  0000              add [eax],al
00000913  0000              add [eax],al
00000915  0000              add [eax],al
00000917  0000              add [eax],al
00000919  0000              add [eax],al
0000091B  0000              add [eax],al
0000091D  0000              add [eax],al
0000091F  0000              add [eax],al
00000921  0000              add [eax],al
00000923  0000              add [eax],al
00000925  0000              add [eax],al
00000927  0000              add [eax],al
00000929  0000              add [eax],al
0000092B  0000              add [eax],al
0000092D  0000              add [eax],al
0000092F  0000              add [eax],al
00000931  0000              add [eax],al
00000933  0000              add [eax],al
00000935  0000              add [eax],al
00000937  0000              add [eax],al
00000939  0000              add [eax],al
0000093B  0000              add [eax],al
0000093D  0000              add [eax],al
0000093F  0000              add [eax],al
00000941  0000              add [eax],al
00000943  0000              add [eax],al
00000945  0000              add [eax],al
00000947  0000              add [eax],al
00000949  0000              add [eax],al
0000094B  0000              add [eax],al
0000094D  0000              add [eax],al
0000094F  0000              add [eax],al
00000951  0000              add [eax],al
00000953  0000              add [eax],al
00000955  0000              add [eax],al
00000957  0000              add [eax],al
00000959  0000              add [eax],al
0000095B  0000              add [eax],al
0000095D  0000              add [eax],al
0000095F  0000              add [eax],al
00000961  0000              add [eax],al
00000963  0000              add [eax],al
00000965  0000              add [eax],al
00000967  0000              add [eax],al
00000969  0000              add [eax],al
0000096B  0000              add [eax],al
0000096D  0000              add [eax],al
0000096F  0000              add [eax],al
00000971  0000              add [eax],al
00000973  0000              add [eax],al
00000975  0000              add [eax],al
00000977  0000              add [eax],al
00000979  0000              add [eax],al
0000097B  0000              add [eax],al
0000097D  0000              add [eax],al
0000097F  0000              add [eax],al
00000981  0000              add [eax],al
00000983  0000              add [eax],al
00000985  0000              add [eax],al
00000987  0000              add [eax],al
00000989  0000              add [eax],al
0000098B  0000              add [eax],al
0000098D  0000              add [eax],al
0000098F  0000              add [eax],al
00000991  0000              add [eax],al
00000993  0000              add [eax],al
00000995  0000              add [eax],al
00000997  0000              add [eax],al
00000999  0000              add [eax],al
0000099B  0000              add [eax],al
0000099D  0000              add [eax],al
0000099F  0000              add [eax],al
000009A1  0000              add [eax],al
000009A3  0000              add [eax],al
000009A5  0000              add [eax],al
000009A7  0000              add [eax],al
000009A9  0000              add [eax],al
000009AB  0000              add [eax],al
000009AD  0000              add [eax],al
000009AF  0000              add [eax],al
000009B1  0000              add [eax],al
000009B3  0000              add [eax],al
000009B5  0000              add [eax],al
000009B7  0000              add [eax],al
000009B9  0000              add [eax],al
000009BB  0000              add [eax],al
000009BD  0000              add [eax],al
000009BF  0000              add [eax],al
000009C1  0000              add [eax],al
000009C3  0000              add [eax],al
000009C5  0000              add [eax],al
000009C7  0000              add [eax],al
000009C9  0000              add [eax],al
000009CB  0000              add [eax],al
000009CD  0000              add [eax],al
000009CF  0000              add [eax],al
000009D1  0000              add [eax],al
000009D3  0000              add [eax],al
000009D5  0000              add [eax],al
000009D7  0000              add [eax],al
000009D9  0000              add [eax],al
000009DB  0000              add [eax],al
000009DD  0000              add [eax],al
000009DF  0000              add [eax],al
000009E1  0000              add [eax],al
000009E3  0000              add [eax],al
000009E5  0000              add [eax],al
000009E7  0000              add [eax],al
000009E9  0000              add [eax],al
000009EB  0000              add [eax],al
000009ED  0000              add [eax],al
000009EF  0000              add [eax],al
000009F1  0000              add [eax],al
000009F3  0000              add [eax],al
000009F5  0000              add [eax],al
000009F7  0000              add [eax],al
000009F9  0000              add [eax],al
000009FB  0000              add [eax],al
000009FD  0000              add [eax],al
000009FF  0000              add [eax],al
00000A01  0000              add [eax],al
00000A03  0000              add [eax],al
00000A05  0000              add [eax],al
00000A07  0000              add [eax],al
00000A09  0000              add [eax],al
00000A0B  0000              add [eax],al
00000A0D  0000              add [eax],al
00000A0F  0000              add [eax],al
00000A11  0000              add [eax],al
00000A13  0000              add [eax],al
00000A15  0000              add [eax],al
00000A17  0000              add [eax],al
00000A19  0000              add [eax],al
00000A1B  0000              add [eax],al
00000A1D  0000              add [eax],al
00000A1F  0000              add [eax],al
00000A21  0000              add [eax],al
00000A23  0000              add [eax],al
00000A25  0000              add [eax],al
00000A27  0000              add [eax],al
00000A29  0000              add [eax],al
00000A2B  0000              add [eax],al
00000A2D  0000              add [eax],al
00000A2F  0000              add [eax],al
00000A31  0000              add [eax],al
00000A33  0000              add [eax],al
00000A35  0000              add [eax],al
00000A37  0000              add [eax],al
00000A39  0000              add [eax],al
00000A3B  0000              add [eax],al
00000A3D  0000              add [eax],al
00000A3F  0000              add [eax],al
00000A41  0000              add [eax],al
00000A43  0000              add [eax],al
00000A45  0000              add [eax],al
00000A47  0000              add [eax],al
00000A49  0000              add [eax],al
00000A4B  0000              add [eax],al
00000A4D  0000              add [eax],al
00000A4F  0000              add [eax],al
00000A51  0000              add [eax],al
00000A53  0000              add [eax],al
00000A55  0000              add [eax],al
00000A57  0000              add [eax],al
00000A59  0000              add [eax],al
00000A5B  0000              add [eax],al
00000A5D  0000              add [eax],al
00000A5F  0000              add [eax],al
00000A61  0000              add [eax],al
00000A63  0000              add [eax],al
00000A65  0000              add [eax],al
00000A67  0000              add [eax],al
00000A69  0000              add [eax],al
00000A6B  0000              add [eax],al
00000A6D  0000              add [eax],al
00000A6F  0000              add [eax],al
00000A71  0000              add [eax],al
00000A73  0000              add [eax],al
00000A75  0000              add [eax],al
00000A77  0000              add [eax],al
00000A79  0000              add [eax],al
00000A7B  0000              add [eax],al
00000A7D  0000              add [eax],al
00000A7F  0000              add [eax],al
00000A81  0000              add [eax],al
00000A83  0000              add [eax],al
00000A85  0000              add [eax],al
00000A87  0000              add [eax],al
00000A89  0000              add [eax],al
00000A8B  0000              add [eax],al
00000A8D  0000              add [eax],al
00000A8F  0000              add [eax],al
00000A91  0000              add [eax],al
00000A93  0000              add [eax],al
00000A95  0000              add [eax],al
00000A97  0000              add [eax],al
00000A99  0000              add [eax],al
00000A9B  0000              add [eax],al
00000A9D  0000              add [eax],al
00000A9F  0000              add [eax],al
00000AA1  0000              add [eax],al
00000AA3  0000              add [eax],al
00000AA5  0000              add [eax],al
00000AA7  0000              add [eax],al
00000AA9  0000              add [eax],al
00000AAB  0000              add [eax],al
00000AAD  0000              add [eax],al
00000AAF  0000              add [eax],al
00000AB1  0000              add [eax],al
00000AB3  0000              add [eax],al
00000AB5  0000              add [eax],al
00000AB7  0000              add [eax],al
00000AB9  0000              add [eax],al
00000ABB  0000              add [eax],al
00000ABD  0000              add [eax],al
00000ABF  0000              add [eax],al
00000AC1  0000              add [eax],al
00000AC3  0000              add [eax],al
00000AC5  0000              add [eax],al
00000AC7  0000              add [eax],al
00000AC9  0000              add [eax],al
00000ACB  0000              add [eax],al
00000ACD  0000              add [eax],al
00000ACF  0000              add [eax],al
00000AD1  0000              add [eax],al
00000AD3  0000              add [eax],al
00000AD5  0000              add [eax],al
00000AD7  0000              add [eax],al
00000AD9  0000              add [eax],al
00000ADB  0000              add [eax],al
00000ADD  0000              add [eax],al
00000ADF  0000              add [eax],al
00000AE1  0000              add [eax],al
00000AE3  0000              add [eax],al
00000AE5  0000              add [eax],al
00000AE7  0000              add [eax],al
00000AE9  0000              add [eax],al
00000AEB  0000              add [eax],al
00000AED  0000              add [eax],al
00000AEF  0000              add [eax],al
00000AF1  0000              add [eax],al
00000AF3  0000              add [eax],al
00000AF5  0000              add [eax],al
00000AF7  0000              add [eax],al
00000AF9  0000              add [eax],al
00000AFB  0000              add [eax],al
00000AFD  0000              add [eax],al
00000AFF  0000              add [eax],al
00000B01  0000              add [eax],al
00000B03  0000              add [eax],al
00000B05  0000              add [eax],al
00000B07  0000              add [eax],al
00000B09  0000              add [eax],al
00000B0B  0000              add [eax],al
00000B0D  0000              add [eax],al
00000B0F  0000              add [eax],al
00000B11  0000              add [eax],al
00000B13  0000              add [eax],al
00000B15  0000              add [eax],al
00000B17  0000              add [eax],al
00000B19  0000              add [eax],al
00000B1B  0000              add [eax],al
00000B1D  0000              add [eax],al
00000B1F  0000              add [eax],al
00000B21  0000              add [eax],al
00000B23  0000              add [eax],al
00000B25  0000              add [eax],al
00000B27  0000              add [eax],al
00000B29  0000              add [eax],al
00000B2B  0000              add [eax],al
00000B2D  0000              add [eax],al
00000B2F  0000              add [eax],al
00000B31  0000              add [eax],al
00000B33  0000              add [eax],al
00000B35  0000              add [eax],al
00000B37  0000              add [eax],al
00000B39  0000              add [eax],al
00000B3B  0000              add [eax],al
00000B3D  0000              add [eax],al
00000B3F  0000              add [eax],al
00000B41  0000              add [eax],al
00000B43  0000              add [eax],al
00000B45  0000              add [eax],al
00000B47  0000              add [eax],al
00000B49  0000              add [eax],al
00000B4B  0000              add [eax],al
00000B4D  0000              add [eax],al
00000B4F  0000              add [eax],al
00000B51  0000              add [eax],al
00000B53  0000              add [eax],al
00000B55  0000              add [eax],al
00000B57  0000              add [eax],al
00000B59  0000              add [eax],al
00000B5B  0000              add [eax],al
00000B5D  0000              add [eax],al
00000B5F  0000              add [eax],al
00000B61  0000              add [eax],al
00000B63  0000              add [eax],al
00000B65  0000              add [eax],al
00000B67  0000              add [eax],al
00000B69  0000              add [eax],al
00000B6B  0000              add [eax],al
00000B6D  0000              add [eax],al
00000B6F  0000              add [eax],al
00000B71  0000              add [eax],al
00000B73  0000              add [eax],al
00000B75  0000              add [eax],al
00000B77  0000              add [eax],al
00000B79  0000              add [eax],al
00000B7B  0000              add [eax],al
00000B7D  0000              add [eax],al
00000B7F  0000              add [eax],al
00000B81  0000              add [eax],al
00000B83  0000              add [eax],al
00000B85  0000              add [eax],al
00000B87  0000              add [eax],al
00000B89  0000              add [eax],al
00000B8B  0000              add [eax],al
00000B8D  0000              add [eax],al
00000B8F  0000              add [eax],al
00000B91  0000              add [eax],al
00000B93  0000              add [eax],al
00000B95  0000              add [eax],al
00000B97  0000              add [eax],al
00000B99  0000              add [eax],al
00000B9B  0000              add [eax],al
00000B9D  0000              add [eax],al
00000B9F  0000              add [eax],al
00000BA1  0000              add [eax],al
00000BA3  0000              add [eax],al
00000BA5  0000              add [eax],al
00000BA7  0000              add [eax],al
00000BA9  0000              add [eax],al
00000BAB  0000              add [eax],al
00000BAD  0000              add [eax],al
00000BAF  0000              add [eax],al
00000BB1  0000              add [eax],al
00000BB3  0000              add [eax],al
00000BB5  0000              add [eax],al
00000BB7  0000              add [eax],al
00000BB9  0000              add [eax],al
00000BBB  0000              add [eax],al
00000BBD  0000              add [eax],al
00000BBF  0000              add [eax],al
00000BC1  0000              add [eax],al
00000BC3  0000              add [eax],al
00000BC5  0000              add [eax],al
00000BC7  0000              add [eax],al
00000BC9  0000              add [eax],al
00000BCB  0000              add [eax],al
00000BCD  0000              add [eax],al
00000BCF  0000              add [eax],al
00000BD1  0000              add [eax],al
00000BD3  0000              add [eax],al
00000BD5  0000              add [eax],al
00000BD7  0000              add [eax],al
00000BD9  0000              add [eax],al
00000BDB  0000              add [eax],al
00000BDD  0000              add [eax],al
00000BDF  0000              add [eax],al
00000BE1  0000              add [eax],al
00000BE3  0000              add [eax],al
00000BE5  0000              add [eax],al
00000BE7  0000              add [eax],al
00000BE9  0000              add [eax],al
00000BEB  0000              add [eax],al
00000BED  0000              add [eax],al
00000BEF  0000              add [eax],al
00000BF1  0000              add [eax],al
00000BF3  0000              add [eax],al
00000BF5  0000              add [eax],al
00000BF7  0000              add [eax],al
00000BF9  0000              add [eax],al
00000BFB  0000              add [eax],al
00000BFD  0000              add [eax],al
00000BFF  0000              add [eax],al
00000C01  0000              add [eax],al
00000C03  0000              add [eax],al
00000C05  0000              add [eax],al
00000C07  0000              add [eax],al
00000C09  0000              add [eax],al
00000C0B  0000              add [eax],al
00000C0D  0000              add [eax],al
00000C0F  0000              add [eax],al
00000C11  0000              add [eax],al
00000C13  0000              add [eax],al
00000C15  0000              add [eax],al
00000C17  0000              add [eax],al
00000C19  0000              add [eax],al
00000C1B  0000              add [eax],al
00000C1D  0000              add [eax],al
00000C1F  0000              add [eax],al
00000C21  0000              add [eax],al
00000C23  0000              add [eax],al
00000C25  0000              add [eax],al
00000C27  0000              add [eax],al
00000C29  0000              add [eax],al
00000C2B  0000              add [eax],al
00000C2D  0000              add [eax],al
00000C2F  0000              add [eax],al
00000C31  0000              add [eax],al
00000C33  0000              add [eax],al
00000C35  0000              add [eax],al
00000C37  0000              add [eax],al
00000C39  0000              add [eax],al
00000C3B  0000              add [eax],al
00000C3D  0000              add [eax],al
00000C3F  0000              add [eax],al
00000C41  0000              add [eax],al
00000C43  0000              add [eax],al
00000C45  0000              add [eax],al
00000C47  0000              add [eax],al
00000C49  0000              add [eax],al
00000C4B  0000              add [eax],al
00000C4D  0000              add [eax],al
00000C4F  0000              add [eax],al
00000C51  0000              add [eax],al
00000C53  0000              add [eax],al
00000C55  0000              add [eax],al
00000C57  0000              add [eax],al
00000C59  0000              add [eax],al
00000C5B  0000              add [eax],al
00000C5D  0000              add [eax],al
00000C5F  0000              add [eax],al
00000C61  0000              add [eax],al
00000C63  0000              add [eax],al
00000C65  0000              add [eax],al
00000C67  0000              add [eax],al
00000C69  0000              add [eax],al
00000C6B  0000              add [eax],al
00000C6D  0000              add [eax],al
00000C6F  0000              add [eax],al
00000C71  0000              add [eax],al
00000C73  0000              add [eax],al
00000C75  0000              add [eax],al
00000C77  0000              add [eax],al
00000C79  0000              add [eax],al
00000C7B  0000              add [eax],al
00000C7D  0000              add [eax],al
00000C7F  0000              add [eax],al
00000C81  0000              add [eax],al
00000C83  0000              add [eax],al
00000C85  0000              add [eax],al
00000C87  0000              add [eax],al
00000C89  0000              add [eax],al
00000C8B  0000              add [eax],al
00000C8D  0000              add [eax],al
00000C8F  0000              add [eax],al
00000C91  0000              add [eax],al
00000C93  0000              add [eax],al
00000C95  0000              add [eax],al
00000C97  0000              add [eax],al
00000C99  0000              add [eax],al
00000C9B  0000              add [eax],al
00000C9D  0000              add [eax],al
00000C9F  0000              add [eax],al
00000CA1  0000              add [eax],al
00000CA3  0000              add [eax],al
00000CA5  0000              add [eax],al
00000CA7  0000              add [eax],al
00000CA9  0000              add [eax],al
00000CAB  0000              add [eax],al
00000CAD  0000              add [eax],al
00000CAF  0000              add [eax],al
00000CB1  0000              add [eax],al
00000CB3  0000              add [eax],al
00000CB5  0000              add [eax],al
00000CB7  0000              add [eax],al
00000CB9  0000              add [eax],al
00000CBB  0000              add [eax],al
00000CBD  0000              add [eax],al
00000CBF  0000              add [eax],al
00000CC1  0000              add [eax],al
00000CC3  0000              add [eax],al
00000CC5  0000              add [eax],al
00000CC7  0000              add [eax],al
00000CC9  0000              add [eax],al
00000CCB  0000              add [eax],al
00000CCD  0000              add [eax],al
00000CCF  0000              add [eax],al
00000CD1  0000              add [eax],al
00000CD3  0000              add [eax],al
00000CD5  0000              add [eax],al
00000CD7  0000              add [eax],al
00000CD9  0000              add [eax],al
00000CDB  0000              add [eax],al
00000CDD  0000              add [eax],al
00000CDF  0000              add [eax],al
00000CE1  0000              add [eax],al
00000CE3  0000              add [eax],al
00000CE5  0000              add [eax],al
00000CE7  0000              add [eax],al
00000CE9  0000              add [eax],al
00000CEB  0000              add [eax],al
00000CED  0000              add [eax],al
00000CEF  0000              add [eax],al
00000CF1  0000              add [eax],al
00000CF3  0000              add [eax],al
00000CF5  0000              add [eax],al
00000CF7  0000              add [eax],al
00000CF9  0000              add [eax],al
00000CFB  0000              add [eax],al
00000CFD  0000              add [eax],al
00000CFF  0000              add [eax],al
00000D01  0000              add [eax],al
00000D03  0000              add [eax],al
00000D05  0000              add [eax],al
00000D07  0000              add [eax],al
00000D09  0000              add [eax],al
00000D0B  0000              add [eax],al
00000D0D  0000              add [eax],al
00000D0F  0000              add [eax],al
00000D11  0000              add [eax],al
00000D13  0000              add [eax],al
00000D15  0000              add [eax],al
00000D17  0000              add [eax],al
00000D19  0000              add [eax],al
00000D1B  0000              add [eax],al
00000D1D  0000              add [eax],al
00000D1F  0000              add [eax],al
00000D21  0000              add [eax],al
00000D23  0000              add [eax],al
00000D25  0000              add [eax],al
00000D27  0000              add [eax],al
00000D29  0000              add [eax],al
00000D2B  0000              add [eax],al
00000D2D  0000              add [eax],al
00000D2F  0000              add [eax],al
00000D31  0000              add [eax],al
00000D33  0000              add [eax],al
00000D35  0000              add [eax],al
00000D37  0000              add [eax],al
00000D39  0000              add [eax],al
00000D3B  0000              add [eax],al
00000D3D  0000              add [eax],al
00000D3F  0000              add [eax],al
00000D41  0000              add [eax],al
00000D43  0000              add [eax],al
00000D45  0000              add [eax],al
00000D47  0000              add [eax],al
00000D49  0000              add [eax],al
00000D4B  0000              add [eax],al
00000D4D  0000              add [eax],al
00000D4F  0000              add [eax],al
00000D51  0000              add [eax],al
00000D53  0000              add [eax],al
00000D55  0000              add [eax],al
00000D57  0000              add [eax],al
00000D59  0000              add [eax],al
00000D5B  0000              add [eax],al
00000D5D  0000              add [eax],al
00000D5F  0000              add [eax],al
00000D61  0000              add [eax],al
00000D63  0000              add [eax],al
00000D65  0000              add [eax],al
00000D67  0000              add [eax],al
00000D69  0000              add [eax],al
00000D6B  0000              add [eax],al
00000D6D  0000              add [eax],al
00000D6F  0000              add [eax],al
00000D71  0000              add [eax],al
00000D73  0000              add [eax],al
00000D75  0000              add [eax],al
00000D77  0000              add [eax],al
00000D79  0000              add [eax],al
00000D7B  0000              add [eax],al
00000D7D  0000              add [eax],al
00000D7F  0000              add [eax],al
00000D81  0000              add [eax],al
00000D83  0000              add [eax],al
00000D85  0000              add [eax],al
00000D87  0000              add [eax],al
00000D89  0000              add [eax],al
00000D8B  0000              add [eax],al
00000D8D  0000              add [eax],al
00000D8F  0000              add [eax],al
00000D91  0000              add [eax],al
00000D93  0000              add [eax],al
00000D95  0000              add [eax],al
00000D97  0000              add [eax],al
00000D99  0000              add [eax],al
00000D9B  0000              add [eax],al
00000D9D  0000              add [eax],al
00000D9F  0000              add [eax],al
00000DA1  0000              add [eax],al
00000DA3  0000              add [eax],al
00000DA5  0000              add [eax],al
00000DA7  0000              add [eax],al
00000DA9  0000              add [eax],al
00000DAB  0000              add [eax],al
00000DAD  0000              add [eax],al
00000DAF  0000              add [eax],al
00000DB1  0000              add [eax],al
00000DB3  0000              add [eax],al
00000DB5  0000              add [eax],al
00000DB7  0000              add [eax],al
00000DB9  0000              add [eax],al
00000DBB  0000              add [eax],al
00000DBD  0000              add [eax],al
00000DBF  0000              add [eax],al
00000DC1  0000              add [eax],al
00000DC3  0000              add [eax],al
00000DC5  0000              add [eax],al
00000DC7  0000              add [eax],al
00000DC9  0000              add [eax],al
00000DCB  0000              add [eax],al
00000DCD  0000              add [eax],al
00000DCF  0000              add [eax],al
00000DD1  0000              add [eax],al
00000DD3  0000              add [eax],al
00000DD5  0000              add [eax],al
00000DD7  0000              add [eax],al
00000DD9  0000              add [eax],al
00000DDB  0000              add [eax],al
00000DDD  0000              add [eax],al
00000DDF  0000              add [eax],al
00000DE1  0000              add [eax],al
00000DE3  0000              add [eax],al
00000DE5  0000              add [eax],al
00000DE7  0000              add [eax],al
00000DE9  0000              add [eax],al
00000DEB  0000              add [eax],al
00000DED  0000              add [eax],al
00000DEF  0000              add [eax],al
00000DF1  0000              add [eax],al
00000DF3  0000              add [eax],al
00000DF5  0000              add [eax],al
00000DF7  0000              add [eax],al
00000DF9  0000              add [eax],al
00000DFB  0000              add [eax],al
00000DFD  0000              add [eax],al
00000DFF  0000              add [eax],al
00000E01  0000              add [eax],al
00000E03  0000              add [eax],al
00000E05  0000              add [eax],al
00000E07  0000              add [eax],al
00000E09  0000              add [eax],al
00000E0B  0000              add [eax],al
00000E0D  0000              add [eax],al
00000E0F  0000              add [eax],al
00000E11  0000              add [eax],al
00000E13  0000              add [eax],al
00000E15  0000              add [eax],al
00000E17  0000              add [eax],al
00000E19  0000              add [eax],al
00000E1B  0000              add [eax],al
00000E1D  0000              add [eax],al
00000E1F  0000              add [eax],al
00000E21  0000              add [eax],al
00000E23  0000              add [eax],al
00000E25  0000              add [eax],al
00000E27  0000              add [eax],al
00000E29  0000              add [eax],al
00000E2B  0000              add [eax],al
00000E2D  0000              add [eax],al
00000E2F  0000              add [eax],al
00000E31  0000              add [eax],al
00000E33  0000              add [eax],al
00000E35  0000              add [eax],al
00000E37  0000              add [eax],al
00000E39  0000              add [eax],al
00000E3B  0000              add [eax],al
00000E3D  0000              add [eax],al
00000E3F  0000              add [eax],al
00000E41  0000              add [eax],al
00000E43  0000              add [eax],al
00000E45  0000              add [eax],al
00000E47  0000              add [eax],al
00000E49  0000              add [eax],al
00000E4B  0000              add [eax],al
00000E4D  0000              add [eax],al
00000E4F  0000              add [eax],al
00000E51  0000              add [eax],al
00000E53  0000              add [eax],al
00000E55  0000              add [eax],al
00000E57  0000              add [eax],al
00000E59  0000              add [eax],al
00000E5B  0000              add [eax],al
00000E5D  0000              add [eax],al
00000E5F  0000              add [eax],al
00000E61  0000              add [eax],al
00000E63  0000              add [eax],al
00000E65  0000              add [eax],al
00000E67  0000              add [eax],al
00000E69  0000              add [eax],al
00000E6B  0000              add [eax],al
00000E6D  0000              add [eax],al
00000E6F  0000              add [eax],al
00000E71  0000              add [eax],al
00000E73  0000              add [eax],al
00000E75  0000              add [eax],al
00000E77  0000              add [eax],al
00000E79  0000              add [eax],al
00000E7B  0000              add [eax],al
00000E7D  0000              add [eax],al
00000E7F  0000              add [eax],al
00000E81  0000              add [eax],al
00000E83  0000              add [eax],al
00000E85  0000              add [eax],al
00000E87  0000              add [eax],al
00000E89  0000              add [eax],al
00000E8B  0000              add [eax],al
00000E8D  0000              add [eax],al
00000E8F  0000              add [eax],al
00000E91  0000              add [eax],al
00000E93  0000              add [eax],al
00000E95  0000              add [eax],al
00000E97  0000              add [eax],al
00000E99  0000              add [eax],al
00000E9B  0000              add [eax],al
00000E9D  0000              add [eax],al
00000E9F  0000              add [eax],al
00000EA1  0000              add [eax],al
00000EA3  0000              add [eax],al
00000EA5  0000              add [eax],al
00000EA7  0000              add [eax],al
00000EA9  0000              add [eax],al
00000EAB  0000              add [eax],al
00000EAD  0000              add [eax],al
00000EAF  0000              add [eax],al
00000EB1  0000              add [eax],al
00000EB3  0000              add [eax],al
00000EB5  0000              add [eax],al
00000EB7  0000              add [eax],al
00000EB9  0000              add [eax],al
00000EBB  0000              add [eax],al
00000EBD  0000              add [eax],al
00000EBF  0000              add [eax],al
00000EC1  0000              add [eax],al
00000EC3  0000              add [eax],al
00000EC5  0000              add [eax],al
00000EC7  0000              add [eax],al
00000EC9  0000              add [eax],al
00000ECB  0000              add [eax],al
00000ECD  0000              add [eax],al
00000ECF  0000              add [eax],al
00000ED1  0000              add [eax],al
00000ED3  0000              add [eax],al
00000ED5  0000              add [eax],al
00000ED7  0000              add [eax],al
00000ED9  0000              add [eax],al
00000EDB  0000              add [eax],al
00000EDD  0000              add [eax],al
00000EDF  0000              add [eax],al
00000EE1  0000              add [eax],al
00000EE3  0000              add [eax],al
00000EE5  0000              add [eax],al
00000EE7  0000              add [eax],al
00000EE9  0000              add [eax],al
00000EEB  0000              add [eax],al
00000EED  0000              add [eax],al
00000EEF  0000              add [eax],al
00000EF1  0000              add [eax],al
00000EF3  0000              add [eax],al
00000EF5  0000              add [eax],al
00000EF7  0000              add [eax],al
00000EF9  0000              add [eax],al
00000EFB  0000              add [eax],al
00000EFD  0000              add [eax],al
00000EFF  0000              add [eax],al
00000F01  0000              add [eax],al
00000F03  0000              add [eax],al
00000F05  0000              add [eax],al
00000F07  00B083040890      add [eax-0x6ff7fb7d],dh
00000F0D  83040800          add dword [eax+ecx],byte +0x0
00000F11  0000              add [eax],al
00000F13  0001              add [ecx],al
00000F15  0000              add [eax],al
00000F17  0001              add [ecx],al
00000F19  0000              add [eax],al
00000F1B  000C00            add [eax+eax],cl
00000F1E  0000              add [eax],al
00000F20  8C8204080D00      mov [edx+0xd0804],es
00000F26  0000              add [eax],al
00000F28  54                push esp
00000F29  840408            test [eax+ecx],al
00000F2C  1900              sbb [eax],eax
00000F2E  0000              add [eax],al
00000F30  089F04081B00      or [edi+0x1b0804],bl
00000F36  0000              add [eax],al
00000F38  0400              add al,0x0
00000F3A  0000              add [eax],al
00000F3C  1A00              sbb al,[eax]
00000F3E  0000              add [eax],al
00000F40  0C9F              or al,0x9f
00000F42  0408              add al,0x8
00000F44  1C00              sbb al,0x0
00000F46  0000              add [eax],al
00000F48  0400              add al,0x0
00000F4A  0000              add [eax],al
00000F4C  F5                cmc
00000F4D  FE                db 0xfe
00000F4E  FF6FAC            jmp dword far [edi-0x54]
00000F51  81040805000000    add dword [eax+ecx],0x5
00000F58  0C82              or al,0x82
00000F5A  0408              add al,0x8
00000F5C  06                push es
00000F5D  0000              add [eax],al
00000F5F  00CC              add ah,cl
00000F61  8104080A000000    add dword [eax+ecx],0xa
00000F68  45                inc ebp
00000F69  0000              add [eax],al
00000F6B  000B              add [ebx],cl
00000F6D  0000              add [eax],al
00000F6F  0010              add [eax],dl
00000F71  0000              add [eax],al
00000F73  001500000000      add [dword 0x0],dl
00000F79  0000              add [eax],al
00000F7B  0003              add [ebx],al
00000F7D  0000              add [eax],al
00000F7F  0000              add [eax],al
00000F81  A004080200        mov al,[0x20804]
00000F86  0000              add [eax],al
00000F88  0800              or [eax],al
00000F8A  0000              add [eax],al
00000F8C  1400              adc al,0x0
00000F8E  0000              add [eax],al
00000F90  1100              adc [eax],eax
00000F92  0000              add [eax],al
00000F94  17                pop ss
00000F95  0000              add [eax],al
00000F97  00848204081100    add [edx+eax*4+0x110804],al
00000F9E  0000              add [eax],al
00000FA0  7C82              jl 0xf24
00000FA2  0408              add al,0x8
00000FA4  1200              adc al,[eax]
00000FA6  0000              add [eax],al
00000FA8  0800              or [eax],al
00000FAA  0000              add [eax],al
00000FAC  1300              adc eax,[eax]
00000FAE  0000              add [eax],al
00000FB0  0800              or [eax],al
00000FB2  0000              add [eax],al
00000FB4  FE                db 0xfe
00000FB5  FF                db 0xff
00000FB6  FF6F5C            jmp dword far [edi+0x5c]
00000FB9  82                db 0x82
00000FBA  0408              add al,0x8
00000FBC  FF                db 0xff
00000FBD  FF                db 0xff
00000FBE  FF6F01            jmp dword far [edi+0x1]
00000FC1  0000              add [eax],al
00000FC3  00F0              add al,dh
00000FC5  FF                db 0xff
00000FC6  FF6F52            jmp dword far [edi+0x52]
00000FC9  82                db 0x82
00000FCA  0408              add al,0x8
00000FCC  0000              add [eax],al
00000FCE  0000              add [eax],al
00000FD0  0000              add [eax],al
00000FD2  0000              add [eax],al
00000FD4  0000              add [eax],al
00000FD6  0000              add [eax],al
00000FD8  0000              add [eax],al
00000FDA  0000              add [eax],al
00000FDC  0000              add [eax],al
00000FDE  0000              add [eax],al
00000FE0  0000              add [eax],al
00000FE2  0000              add [eax],al
00000FE4  0000              add [eax],al
00000FE6  0000              add [eax],al
00000FE8  0000              add [eax],al
00000FEA  0000              add [eax],al
00000FEC  0000              add [eax],al
00000FEE  0000              add [eax],al
00000FF0  0000              add [eax],al
00000FF2  0000              add [eax],al
00000FF4  0000              add [eax],al
00000FF6  0000              add [eax],al
00000FF8  0000              add [eax],al
00000FFA  0000              add [eax],al
00000FFC  0000              add [eax],al
00000FFE  0000              add [eax],al
00001000  149F              adc al,0x9f
00001002  0408              add al,0x8
00001004  0000              add [eax],al
00001006  0000              add [eax],al
00001008  0000              add [eax],al
0000100A  0000              add [eax],al
0000100C  C6820408000000    mov byte [edx+0x804],0x0
00001013  0000              add [eax],al
00001015  0000              add [eax],al
00001017  004743            add [edi+0x43],al
0000101A  43                inc ebx
0000101B  3A20              cmp ah,[eax]
0000101D  285562            sub [ebp+0x62],dl
00001020  756E              jnz 0x1090
00001022  7475              jz 0x1099
00001024  20352E342E30      and [dword 0x302e342e],dh
0000102A  2D36756275        sub eax,0x75627536
0000102F  6E                outsb
00001030  7475              jz 0x10a7
00001032  317E31            xor [esi+0x31],edi
00001035  362E30342E        xor [cs:esi+ebp],dh
0000103A  3132              xor [edx],esi
0000103C  2920              sub [eax],esp
0000103E  352E342E30        xor eax,0x302e342e
00001043  2032              and [edx],dh
00001045  3031              xor [ecx],dh
00001047  363036            xor [ss:esi],dh
0000104A  3039              xor [ecx],bh
0000104C  0000              add [eax],al
0000104E  0000              add [eax],al
00001050  0000              add [eax],al
00001052  0000              add [eax],al
00001054  0000              add [eax],al
00001056  0000              add [eax],al
00001058  0000              add [eax],al
0000105A  0000              add [eax],al
0000105C  0000              add [eax],al
0000105E  0000              add [eax],al
00001060  0000              add [eax],al
00001062  0000              add [eax],al
00001064  54                push esp
00001065  81040800000000    add dword [eax+ecx],0x0
0000106C  0300              add eax,[eax]
0000106E  0100              add [eax],eax
00001070  0000              add [eax],al
00001072  0000              add [eax],al
00001074  6881040800        push dword 0x80481
00001079  0000              add [eax],al
0000107B  0003              add [ebx],al
0000107D  0002              add [edx],al
0000107F  0000              add [eax],al
00001081  0000              add [eax],al
00001083  008881040800      add [eax+0x80481],cl
00001089  0000              add [eax],al
0000108B  0003              add [ebx],al
0000108D  0003              add [ebx],al
0000108F  0000              add [eax],al
00001091  0000              add [eax],al
00001093  00AC8104080000    add [ecx+eax*4+0x804],ch
0000109A  0000              add [eax],al
0000109C  0300              add eax,[eax]
0000109E  0400              add al,0x0
000010A0  0000              add [eax],al
000010A2  0000              add [eax],al
000010A4  CC                int3
000010A5  81040800000000    add dword [eax+ecx],0x0
000010AC  0300              add eax,[eax]
000010AE  0500000000        add eax,0x0
000010B3  000C82            add [edx+eax*4],cl
000010B6  0408              add al,0x8
000010B8  0000              add [eax],al
000010BA  0000              add [eax],al
000010BC  0300              add eax,[eax]
000010BE  06                push es
000010BF  0000              add [eax],al
000010C1  0000              add [eax],al
000010C3  005282            add [edx-0x7e],dl
000010C6  0408              add al,0x8
000010C8  0000              add [eax],al
000010CA  0000              add [eax],al
000010CC  0300              add eax,[eax]
000010CE  07                pop es
000010CF  0000              add [eax],al
000010D1  0000              add [eax],al
000010D3  005C8204          add [edx+eax*4+0x4],bl
000010D7  0800              or [eax],al
000010D9  0000              add [eax],al
000010DB  0003              add [ebx],al
000010DD  0008              add [eax],cl
000010DF  0000              add [eax],al
000010E1  0000              add [eax],al
000010E3  007C8204          add [edx+eax*4+0x4],bh
000010E7  0800              or [eax],al
000010E9  0000              add [eax],al
000010EB  0003              add [ebx],al
000010ED  0009              add [ecx],cl
000010EF  0000              add [eax],al
000010F1  0000              add [eax],al
000010F3  00848204080000    add [edx+eax*4+0x804],al
000010FA  0000              add [eax],al
000010FC  0300              add eax,[eax]
000010FE  0A00              or al,[eax]
00001100  0000              add [eax],al
00001102  0000              add [eax],al
00001104  8C8204080000      mov [edx+0x804],es
0000110A  0000              add [eax],al
0000110C  0300              add eax,[eax]
0000110E  0B00              or eax,[eax]
00001110  0000              add [eax],al
00001112  0000              add [eax],al
00001114  B082              mov al,0x82
00001116  0408              add al,0x8
00001118  0000              add [eax],al
0000111A  0000              add [eax],al
0000111C  0300              add eax,[eax]
0000111E  0C00              or al,0x0
00001120  0000              add [eax],al
00001122  0000              add [eax],al
00001124  D08204080000      rol byte [edx+0x804],1
0000112A  0000              add [eax],al
0000112C  0300              add eax,[eax]
0000112E  0D00000000        or eax,0x0
00001133  00E0              add al,ah
00001135  82                db 0x82
00001136  0408              add al,0x8
00001138  0000              add [eax],al
0000113A  0000              add [eax],al
0000113C  0300              add eax,[eax]
0000113E  0E                push cs
0000113F  0000              add [eax],al
00001141  0000              add [eax],al
00001143  00548404          add [esp+eax*4+0x4],dl
00001147  0800              or [eax],al
00001149  0000              add [eax],al
0000114B  0003              add [ebx],al
0000114D  000F              add [edi],cl
0000114F  0000              add [eax],al
00001151  0000              add [eax],al
00001153  006884            add [eax-0x7c],ch
00001156  0408              add al,0x8
00001158  0000              add [eax],al
0000115A  0000              add [eax],al
0000115C  0300              add eax,[eax]
0000115E  1000              adc [eax],al
00001160  0000              add [eax],al
00001162  0000              add [eax],al
00001164  7084              jo 0x10ea
00001166  0408              add al,0x8
00001168  0000              add [eax],al
0000116A  0000              add [eax],al
0000116C  0300              add eax,[eax]
0000116E  1100              adc [eax],eax
00001170  0000              add [eax],al
00001172  0000              add [eax],al
00001174  9C                pushfd
00001175  840408            test [eax+ecx],al
00001178  0000              add [eax],al
0000117A  0000              add [eax],al
0000117C  0300              add eax,[eax]
0000117E  1200              adc al,[eax]
00001180  0000              add [eax],al
00001182  0000              add [eax],al
00001184  089F04080000      or [edi+0x804],bl
0000118A  0000              add [eax],al
0000118C  0300              add eax,[eax]
0000118E  1300              adc eax,[eax]
00001190  0000              add [eax],al
00001192  0000              add [eax],al
00001194  0C9F              or al,0x9f
00001196  0408              add al,0x8
00001198  0000              add [eax],al
0000119A  0000              add [eax],al
0000119C  0300              add eax,[eax]
0000119E  1400              adc al,0x0
000011A0  0000              add [eax],al
000011A2  0000              add [eax],al
000011A4  109F04080000      adc [edi+0x804],bl
000011AA  0000              add [eax],al
000011AC  0300              add eax,[eax]
000011AE  1500000000        adc eax,0x0
000011B3  00149F            add [edi+ebx*4],dl
000011B6  0408              add al,0x8
000011B8  0000              add [eax],al
000011BA  0000              add [eax],al
000011BC  0300              add eax,[eax]
000011BE  16                push ss
000011BF  0000              add [eax],al
000011C1  0000              add [eax],al
000011C3  00FC              add ah,bh
000011C5  9F                lahf
000011C6  0408              add al,0x8
000011C8  0000              add [eax],al
000011CA  0000              add [eax],al
000011CC  0300              add eax,[eax]
000011CE  17                pop ss
000011CF  0000              add [eax],al
000011D1  0000              add [eax],al
000011D3  0000              add [eax],al
000011D5  A004080000        mov al,[0x804]
000011DA  0000              add [eax],al
000011DC  0300              add eax,[eax]
000011DE  1800              sbb [eax],al
000011E0  0000              add [eax],al
000011E2  0000              add [eax],al
000011E4  10A004080000      adc [eax+0x804],ah
000011EA  0000              add [eax],al
000011EC  0300              add eax,[eax]
000011EE  1900              sbb [eax],eax
000011F0  0000              add [eax],al
000011F2  0000              add [eax],al
000011F4  18A004080000      sbb [eax+0x804],ah
000011FA  0000              add [eax],al
000011FC  0300              add eax,[eax]
000011FE  1A00              sbb al,[eax]
00001200  0000              add [eax],al
00001202  0000              add [eax],al
00001204  0000              add [eax],al
00001206  0000              add [eax],al
00001208  0000              add [eax],al
0000120A  0000              add [eax],al
0000120C  0300              add eax,[eax]
0000120E  1B00              sbb eax,[eax]
00001210  0100              add [eax],eax
00001212  0000              add [eax],al
00001214  0000              add [eax],al
00001216  0000              add [eax],al
00001218  0000              add [eax],al
0000121A  0000              add [eax],al
0000121C  0400              add al,0x0
0000121E  F1                int1
0000121F  FF0C00            dec dword [eax+eax]
00001222  0000              add [eax],al
00001224  109F04080000      adc [edi+0x804],bl
0000122A  0000              add [eax],al
0000122C  0100              add [eax],eax
0000122E  1500190000        adc eax,0x1900
00001233  0020              add [eax],ah
00001235  83040800          add dword [eax+ecx],byte +0x0
00001239  0000              add [eax],al
0000123B  0002              add [edx],al
0000123D  000E              add [esi],cl
0000123F  001B              add [ebx],bl
00001241  0000              add [eax],al
00001243  005083            add [eax-0x7d],dl
00001246  0408              add al,0x8
00001248  0000              add [eax],al
0000124A  0000              add [eax],al
0000124C  0200              add al,[eax]
0000124E  0E                push cs
0000124F  002E              add [esi],ch
00001251  0000              add [eax],al
00001253  009083040800      add [eax+0x80483],dl
00001259  0000              add [eax],al
0000125B  0002              add [edx],al
0000125D  000E              add [esi],cl
0000125F  00440000          add [eax+eax+0x0],al
00001263  0018              add [eax],bl
00001265  A004080100        mov al,[0x10804]
0000126A  0000              add [eax],al
0000126C  0100              add [eax],eax
0000126E  1A00              sbb al,[eax]
00001270  53                push ebx
00001271  0000              add [eax],al
00001273  000C9F            add [edi+ebx*4],cl
00001276  0408              add al,0x8
00001278  0000              add [eax],al
0000127A  0000              add [eax],al
0000127C  0100              add [eax],eax
0000127E  1400              adc al,0x0
00001280  7A00              jpe 0x1282
00001282  0000              add [eax],al
00001284  B083              mov al,0x83
00001286  0408              add al,0x8
00001288  0000              add [eax],al
0000128A  0000              add [eax],al
0000128C  0200              add al,[eax]
0000128E  0E                push cs
0000128F  008600000008      add [esi+0x8000000],al
00001295  9F                lahf
00001296  0408              add al,0x8
00001298  0000              add [eax],al
0000129A  0000              add [eax],al
0000129C  0100              add [eax],eax
0000129E  1300              adc eax,[eax]
000012A0  A5                movsd
000012A1  0000              add [eax],al
000012A3  0000              add [eax],al
000012A5  0000              add [eax],al
000012A7  0000              add [eax],al
000012A9  0000              add [eax],al
000012AB  000400            add [eax+eax],al
000012AE  F1                int1
000012AF  FF01              inc dword [ecx]
000012B1  0000              add [eax],al
000012B3  0000              add [eax],al
000012B5  0000              add [eax],al
000012B7  0000              add [eax],al
000012B9  0000              add [eax],al
000012BB  000400            add [eax+eax],al
000012BE  F1                int1
000012BF  FFAC0000005885    jmp dword far [eax+eax-0x7aa80000]
000012C6  0408              add al,0x8
000012C8  0000              add [eax],al
000012CA  0000              add [eax],al
000012CC  0100              add [eax],eax
000012CE  1200              adc al,[eax]
000012D0  BA00000010        mov edx,0x10000000
000012D5  9F                lahf
000012D6  0408              add al,0x8
000012D8  0000              add [eax],al
000012DA  0000              add [eax],al
000012DC  0100              add [eax],eax
000012DE  1500000000        adc eax,0x0
000012E3  0000              add [eax],al
000012E5  0000              add [eax],al
000012E7  0000              add [eax],al
000012E9  0000              add [eax],al
000012EB  000400            add [eax+eax],al
000012EE  F1                int1
000012EF  FFC6              inc esi
000012F1  0000              add [eax],al
000012F3  000C9F            add [edi+ebx*4],cl
000012F6  0408              add al,0x8
000012F8  0000              add [eax],al
000012FA  0000              add [eax],al
000012FC  0000              add [eax],al
000012FE  1300              adc eax,[eax]
00001300  D7                xlatb
00001301  0000              add [eax],al
00001303  00149F            add [edi+ebx*4],dl
00001306  0408              add al,0x8
00001308  0000              add [eax],al
0000130A  0000              add [eax],al
0000130C  0100              add [eax],eax
0000130E  16                push ss
0000130F  00E0              add al,ah
00001311  0000              add [eax],al
00001313  0008              add [eax],cl
00001315  9F                lahf
00001316  0408              add al,0x8
00001318  0000              add [eax],al
0000131A  0000              add [eax],al
0000131C  0000              add [eax],al
0000131E  1300              adc eax,[eax]
00001320  F30000            rep add [eax],al
00001323  007084            add [eax-0x7c],dh
00001326  0408              add al,0x8
00001328  0000              add [eax],al
0000132A  0000              add [eax],al
0000132C  0000              add [eax],al
0000132E  1100              adc [eax],eax
00001330  06                push es
00001331  0100              add [eax],eax
00001333  0000              add [eax],al
00001335  A004080000        mov al,[0x804]
0000133A  0000              add [eax],al
0000133C  0100              add [eax],eax
0000133E  1800              sbb [eax],al
00001340  1C01              sbb al,0x1
00001342  0000              add [eax],al
00001344  50                push eax
00001345  840408            test [eax+ecx],al
00001348  0200              add al,[eax]
0000134A  0000              add [eax],al
0000134C  1200              adc al,[eax]
0000134E  0E                push cs
0000134F  002C01            add [ecx+eax],ch
00001352  0000              add [eax],al
00001354  0000              add [eax],al
00001356  0000              add [eax],al
00001358  0000              add [eax],al
0000135A  0000              add [eax],al
0000135C  2000              and [eax],al
0000135E  0000              add [eax],al
00001360  48                dec eax
00001361  0100              add [eax],eax
00001363  0010              add [eax],dl
00001365  83040804          add dword [eax+ecx],byte +0x4
00001369  0000              add [eax],al
0000136B  0012              add [edx],dl
0000136D  020E              add cl,[esi]
0000136F  006701            add [edi+0x1],ah
00001372  0000              add [eax],al
00001374  10A004080000      adc [eax+0x804],ah
0000137A  0000              add [eax],al
0000137C  2000              and [eax],al
0000137E  1900              sbb [eax],eax
00001380  5E                pop esi
00001381  0100              add [eax],eax
00001383  0018              add [eax],bl
00001385  A004080000        mov al,[0x804]
0000138A  0000              add [eax],al
0000138C  1000              adc [eax],al
0000138E  1900              sbb [eax],eax
00001390  260100            add [es:eax],eax
00001393  00548404          add [esp+eax*4+0x4],dl
00001397  0800              or [eax],al
00001399  0000              add [eax],al
0000139B  0012              add [edx],dl
0000139D  000F              add [edi],cl
0000139F  006501            add [ebp+0x1],ah
000013A2  0000              add [eax],al
000013A4  10A004080000      adc [eax+0x804],ah
000013AA  0000              add [eax],al
000013AC  1000              adc [eax],al
000013AE  1900              sbb [eax],eax
000013B0  7201              jc 0x13b3
000013B2  0000              add [eax],al
000013B4  0000              add [eax],al
000013B6  0000              add [eax],al
000013B8  0000              add [eax],al
000013BA  0000              add [eax],al
000013BC  2000              and [eax],al
000013BE  0000              add [eax],al
000013C0  8101000014A0      add dword [ecx],0xa0140000
000013C6  0408              add al,0x8
000013C8  0000              add [eax],al
000013CA  0000              add [eax],al
000013CC  1102              adc [edx],eax
000013CE  1900              sbb [eax],eax
000013D0  8E01              mov es,[ecx]
000013D2  0000              add [eax],al
000013D4  6C                insb
000013D5  840408            test [eax+ecx],al
000013D8  0400              add al,0x0
000013DA  0000              add [eax],al
000013DC  1100              adc [eax],eax
000013DE  1000              adc [eax],al
000013E0  9D                popfd
000013E1  0100              add [eax],eax
000013E3  0000              add [eax],al
000013E5  0000              add [eax],al
000013E7  0000              add [eax],al
000013E9  0000              add [eax],al
000013EB  0012              add [edx],dl
000013ED  0000              add [eax],al
000013EF  00BA010000F0      add [edx-0xfffffff],bh
000013F5  8304085D          add dword [eax+ecx],byte +0x5d
000013F9  0000              add [eax],al
000013FB  0012              add [edx],dl
000013FD  000E              add [esi],cl
000013FF  00D2              add dl,dl
00001401  0000              add [eax],al
00001403  001CA0            add [eax],bl
00001406  0408              add al,0x8
00001408  0000              add [eax],al
0000140A  0000              add [eax],al
0000140C  1000              adc [eax],al
0000140E  1A00              sbb al,[eax]
00001410  6B0100            imul eax,[ecx],byte +0x0
00001413  00E0              add al,ah
00001415  82                db 0x82
00001416  0408              add al,0x8
00001418  0000              add [eax],al
0000141A  0000              add [eax],al
0000141C  1200              adc al,[eax]
0000141E  0E                push cs
0000141F  00CA              add dl,cl
00001421  0100              add [eax],eax
00001423  006884            add [eax-0x7c],ch
00001426  0408              add al,0x8
00001428  0400              add al,0x0
0000142A  0000              add [eax],al
0000142C  1100              adc [eax],eax
0000142E  1000              adc [eax],al
00001430  D101              rol dword [ecx],1
00001432  0000              add [eax],al
00001434  18A004080000      sbb [eax+0x804],ah
0000143A  0000              add [eax],al
0000143C  1000              adc [eax],al
0000143E  1A00              sbb al,[eax]
00001440  DD01              fld qword [ecx]
00001442  0000              add [eax],al
00001444  DB8304081400      fild dword [ebx+0x140804]
0000144A  0000              add [eax],al
0000144C  1200              adc al,[eax]
0000144E  0E                push cs
0000144F  00E2              add dl,ah
00001451  0100              add [eax],eax
00001453  0000              add [eax],al
00001455  0000              add [eax],al
00001457  0000              add [eax],al
00001459  0000              add [eax],al
0000145B  0020              add [eax],ah
0000145D  0000              add [eax],al
0000145F  00F6              add dh,dh
00001461  0100              add [eax],eax
00001463  0018              add [eax],bl
00001465  A004080000        mov al,[0x804]
0000146A  0000              add [eax],al
0000146C  1102              adc [edx],eax
0000146E  1900              sbb [eax],eax
00001470  0202              add al,[edx]
00001472  0000              add [eax],al
00001474  0000              add [eax],al
00001476  0000              add [eax],al
00001478  0000              add [eax],al
0000147A  0000              add [eax],al
0000147C  2000              and [eax],al
0000147E  0000              add [eax],al
00001480  C401              les eax,[ecx]
00001482  0000              add [eax],al
00001484  8C8204080000      mov [edx+0x804],es
0000148A  0000              add [eax],al
0000148C  1200              adc al,[eax]
0000148E  0B00              or eax,[eax]
00001490  006372            add [ebx+0x72],ah
00001493  7473              jz 0x1508
00001495  7475              jz 0x150c
00001497  66662E6300        o16 arpl [cs:eax],ax
0000149C  5F                pop edi
0000149D  5F                pop edi
0000149E  4A                dec edx
0000149F  43                inc ebx
000014A0  52                push edx
000014A1  5F                pop edi
000014A2  4C                dec esp
000014A3  49                dec ecx
000014A4  53                push ebx
000014A5  54                push esp
000014A6  5F                pop edi
000014A7  5F                pop edi
000014A8  00646572          add [ebp+0x72],ah
000014AC  656769737465725F  imul esi,[gs:bp+di+0x74],dword 0x745f7265
         -74
000014B5  6D                insd
000014B6  5F                pop edi
000014B7  636C6F6E          arpl [edi+ebp*2+0x6e],bp
000014BB  657300            gs jnc 0x14be
000014BE  5F                pop edi
000014BF  5F                pop edi
000014C0  646F              fs outsd
000014C2  5F                pop edi
000014C3  676C              a16 insb
000014C5  6F                outsd
000014C6  62                db 0x62
000014C7  61                popad
000014C8  6C                insb
000014C9  5F                pop edi
000014CA  64746F            fs jz 0x153c
000014CD  7273              jc 0x1542
000014CF  5F                pop edi
000014D0  61                popad
000014D1  7578              jnz 0x154b
000014D3  00636F            add [ebx+0x6f],ah
000014D6  6D                insd
000014D7  706C              jo 0x1545
000014D9  657465            gs jz 0x1541
000014DC  642E37            cs aaa
000014DF  3230              xor dh,[eax]
000014E1  3900              cmp [eax],eax
000014E3  5F                pop edi
000014E4  5F                pop edi
000014E5  646F              fs outsd
000014E7  5F                pop edi
000014E8  676C              a16 insb
000014EA  6F                outsd
000014EB  62                db 0x62
000014EC  61                popad
000014ED  6C                insb
000014EE  5F                pop edi
000014EF  64746F            fs jz 0x1561
000014F2  7273              jc 0x1567
000014F4  5F                pop edi
000014F5  61                popad
000014F6  7578              jnz 0x1570
000014F8  5F                pop edi
000014F9  66696E695F61      imul bp,[esi+0x69],word 0x615f
000014FF  7272              jc 0x1573
00001501  61                popad
00001502  795F              jns 0x1563
00001504  656E              gs outsb
00001506  7472              jz 0x157a
00001508  7900              jns 0x150a
0000150A  667261            o16 jc 0x156e
0000150D  6D                insd
0000150E  655F              gs pop edi
00001510  64756D            fs jnz 0x1580
00001513  6D                insd
00001514  7900              jns 0x1516
00001516  5F                pop edi
00001517  5F                pop edi
00001518  667261            o16 jc 0x157c
0000151B  6D                insd
0000151C  655F              gs pop edi
0000151E  64756D            fs jnz 0x158e
00001521  6D                insd
00001522  795F              jns 0x1583
00001524  696E69745F6172    imul ebp,[esi+0x69],dword 0x72615f74
0000152B  7261              jc 0x158e
0000152D  795F              jns 0x158e
0000152F  656E              gs outsb
00001531  7472              jz 0x15a5
00001533  7900              jns 0x1535
00001535  7465              jz 0x159c
00001537  7374              jnc 0x15ad
00001539  2E6300            arpl [cs:eax],ax
0000153C  5F                pop edi
0000153D  5F                pop edi
0000153E  46                inc esi
0000153F  52                push edx
00001540  41                inc ecx
00001541  4D                dec ebp
00001542  45                inc ebp
00001543  5F                pop edi
00001544  45                inc ebp
00001545  4E                dec esi
00001546  44                inc esp
00001547  5F                pop edi
00001548  5F                pop edi
00001549  005F5F            add [edi+0x5f],bl
0000154C  4A                dec edx
0000154D  43                inc ebx
0000154E  52                push edx
0000154F  5F                pop edi
00001550  45                inc ebp
00001551  4E                dec esi
00001552  44                inc esp
00001553  5F                pop edi
00001554  5F                pop edi
00001555  005F5F            add [edi+0x5f],bl
00001558  696E69745F6172    imul ebp,[esi+0x69],dword 0x72615f74
0000155F  7261              jc 0x15c2
00001561  795F              jns 0x15c2
00001563  656E              gs outsb
00001565  64005F44          add [fs:edi+0x44],bl
00001569  59                pop ecx
0000156A  4E                dec esi
0000156B  41                inc ecx
0000156C  4D                dec ebp
0000156D  49                dec ecx
0000156E  43                inc ebx
0000156F  005F5F            add [edi+0x5f],bl
00001572  696E69745F6172    imul ebp,[esi+0x69],dword 0x72615f74
00001579  7261              jc 0x15dc
0000157B  795F              jns 0x15dc
0000157D  7374              jnc 0x15f3
0000157F  61                popad
00001580  7274              jc 0x15f6
00001582  005F5F            add [edi+0x5f],bl
00001585  47                inc edi
00001586  4E                dec esi
00001587  55                push ebp
00001588  5F                pop edi
00001589  45                inc ebp
0000158A  48                dec eax
0000158B  5F                pop edi
0000158C  46                inc esi
0000158D  52                push edx
0000158E  41                inc ecx
0000158F  4D                dec ebp
00001590  45                inc ebp
00001591  5F                pop edi
00001592  48                dec eax
00001593  44                inc esp
00001594  52                push edx
00001595  005F47            add [edi+0x47],bl
00001598  4C                dec esp
00001599  4F                dec edi
0000159A  42                inc edx
0000159B  41                inc ecx
0000159C  4C                dec esp
0000159D  5F                pop edi
0000159E  4F                dec edi
0000159F  46                inc esi
000015A0  46                inc esi
000015A1  53                push ebx
000015A2  45                inc ebp
000015A3  54                push esp
000015A4  5F                pop edi
000015A5  54                push esp
000015A6  41                inc ecx
000015A7  42                inc edx
000015A8  4C                dec esp
000015A9  45                inc ebp
000015AA  5F                pop edi
000015AB  005F5F            add [edi+0x5f],bl
000015AE  6C                insb
000015AF  6962635F637375    imul esp,[edx+0x63],dword 0x7573635f
000015B6  5F                pop edi
000015B7  66696E69005F      imul bp,[esi+0x69],word 0x5f00
000015BD  49                dec ecx
000015BE  54                push esp
000015BF  4D                dec ebp
000015C0  5F                pop edi
000015C1  64657265          gs jc 0x162a
000015C5  676973746572544D  imul esi,[bp+di+0x74],dword 0x4d547265
000015CD  43                inc ebx
000015CE  6C                insb
000015CF  6F                outsd
000015D0  6E                outsb
000015D1  6554              gs push esp
000015D3  61                popad
000015D4  626C6500          bound ebp,[ebp+0x0]
000015D8  5F                pop edi
000015D9  5F                pop edi
000015DA  7838              js 0x1614
000015DC  362E6765745F      gs jz 0x1641
000015E2  7063              jo 0x1647
000015E4  5F                pop edi
000015E5  7468              jz 0x164f
000015E7  756E              jnz 0x1657
000015E9  6B2E62            imul ebp,[esi],byte +0x62
000015EC  7800              js 0x15ee
000015EE  5F                pop edi
000015EF  656461            fs popad
000015F2  7461              jz 0x1655
000015F4  005F5F            add [edi+0x5f],bl
000015F7  6461              fs popad
000015F9  7461              jz 0x165c
000015FB  5F                pop edi
000015FC  7374              jnc 0x1672
000015FE  61                popad
000015FF  7274              jc 0x1675
00001601  005F5F            add [edi+0x5f],bl
00001604  676D              a16 insd
00001606  6F                outsd
00001607  6E                outsb
00001608  5F                pop edi
00001609  7374              jnc 0x167f
0000160B  61                popad
0000160C  7274              jc 0x1682
0000160E  5F                pop edi
0000160F  5F                pop edi
00001610  005F5F            add [edi+0x5f],bl
00001613  64736F            fs jnc 0x1685
00001616  5F                pop edi
00001617  68616E646C        push dword 0x6c646e61
0000161C  65005F49          add [gs:edi+0x49],bl
00001620  4F                dec edi
00001621  5F                pop edi
00001622  7374              jnc 0x1698
00001624  64696E5F75736564  imul ebp,[fs:esi+0x5f],dword 0x64657375
0000162C  005F5F            add [edi+0x5f],bl
0000162F  6C                insb
00001630  6962635F737461    imul esp,[edx+0x63],dword 0x6174735f
00001637  7274              jc 0x16ad
00001639  5F                pop edi
0000163A  6D                insd
0000163B  61                popad
0000163C  696E4040474C49    imul ebp,[esi+0x40],dword 0x494c4740
00001643  42                inc edx
00001644  43                inc ebx
00001645  5F                pop edi
00001646  322E              xor ch,[esi]
00001648  3000              xor [eax],al
0000164A  5F                pop edi
0000164B  5F                pop edi
0000164C  6C                insb
0000164D  6962635F637375    imul esp,[edx+0x63],dword 0x7573635f
00001654  5F                pop edi
00001655  696E6974005F66    imul ebp,[esi+0x69],dword 0x665f0074
0000165C  705F              jo 0x16bd
0000165E  6877005F5F        push dword 0x5f5f0077
00001663  62                db 0x62
00001664  7373              jnc 0x16d9
00001666  5F                pop edi
00001667  7374              jnc 0x16dd
00001669  61                popad
0000166A  7274              jc 0x16e0
0000166C  006D61            add [ebp+0x61],ch
0000166F  696E005F4A765F    imul ebp,[esi+0x0],dword 0x5f764a5f
00001676  52                push edx
00001677  6567697374657243  imul esi,[gs:bp+di+0x74],dword 0x6c437265
         -6C
00001680  61                popad
00001681  7373              jnc 0x16f6
00001683  657300            gs jnc 0x1686
00001686  5F                pop edi
00001687  5F                pop edi
00001688  54                push esp
00001689  4D                dec ebp
0000168A  43                inc ebx
0000168B  5F                pop edi
0000168C  45                inc ebp
0000168D  4E                dec esi
0000168E  44                inc esp
0000168F  5F                pop edi
00001690  5F                pop edi
00001691  005F49            add [edi+0x49],bl
00001694  54                push esp
00001695  4D                dec ebp
00001696  5F                pop edi
00001697  7265              jc 0x16fe
00001699  676973746572544D  imul esi,[bp+di+0x74],dword 0x4d547265
000016A1  43                inc ebx
000016A2  6C                insb
000016A3  6F                outsd
000016A4  6E                outsb
000016A5  6554              gs push esp
000016A7  61                popad
000016A8  626C6500          bound ebp,[ebp+0x0]
000016AC  002E              add [esi],ch
000016AE  7379              jnc 0x1729
000016B0  6D                insd
000016B1  7461              jz 0x1714
000016B3  6200              bound eax,[eax]
000016B5  2E7374            cs jnc 0x172c
000016B8  7274              jc 0x172e
000016BA  61                popad
000016BB  6200              bound eax,[eax]
000016BD  2E7368            cs jnc 0x1728
000016C0  7374              jnc 0x1736
000016C2  7274              jc 0x1738
000016C4  61                popad
000016C5  6200              bound eax,[eax]
000016C7  2E696E7465727000  imul ebp,[cs:esi+0x74],dword 0x707265
000016CF  2E6E              cs outsb
000016D1  6F                outsd
000016D2  7465              jz 0x1739
000016D4  2E41              cs inc ecx
000016D6  42                inc edx
000016D7  49                dec ecx
000016D8  2D74616700        sub eax,0x676174
000016DD  2E6E              cs outsb
000016DF  6F                outsd
000016E0  7465              jz 0x1747
000016E2  2E676E            cs a16 outsb
000016E5  752E              jnz 0x1715
000016E7  627569            bound esi,[ebp+0x69]
000016EA  6C                insb
000016EB  642D6964002E      fs sub eax,0x2e006469
000016F1  676E              a16 outsb
000016F3  752E              jnz 0x1723
000016F5  6861736800        push dword 0x687361
000016FA  2E64796E          fs jns 0x176c
000016FE  7379              jnc 0x1779
00001700  6D                insd
00001701  002E              add [esi],ch
00001703  64796E            fs jns 0x1774
00001706  7374              jnc 0x177c
00001708  7200              jc 0x170a
0000170A  2E676E            cs a16 outsb
0000170D  752E              jnz 0x173d
0000170F  7665              jna 0x1776
00001711  7273              jc 0x1786
00001713  696F6E002E676E    imul ebp,[edi+0x6e],dword 0x6e672e00
0000171A  752E              jnz 0x174a
0000171C  7665              jna 0x1783
0000171E  7273              jc 0x1793
00001720  696F6E5F72002E    imul ebp,[edi+0x6e],dword 0x2e00725f
00001727  7265              jc 0x178e
00001729  6C                insb
0000172A  2E64796E          fs jns 0x179c
0000172E  002E              add [esi],ch
00001730  7265              jc 0x1797
00001732  6C                insb
00001733  2E706C            cs jo 0x17a2
00001736  7400              jz 0x1738
00001738  2E696E6974002E70  imul ebp,[cs:esi+0x69],dword 0x702e0074
00001740  6C                insb
00001741  742E              jz 0x1771
00001743  676F              a16 outsd
00001745  7400              jz 0x1747
00001747  2E7465            cs jz 0x17af
0000174A  7874              js 0x17c0
0000174C  002E              add [esi],ch
0000174E  66696E69002E      imul bp,[esi+0x69],word 0x2e00
00001754  726F              jc 0x17c5
00001756  6461              fs popad
00001758  7461              jz 0x17bb
0000175A  002E              add [esi],ch
0000175C  65685F667261      gs push dword 0x6172665f
00001762  6D                insd
00001763  655F              gs pop edi
00001765  686472002E        push dword 0x2e007264
0000176A  65685F667261      gs push dword 0x6172665f
00001770  6D                insd
00001771  65002E            add [gs:esi],ch
00001774  696E69745F6172    imul ebp,[esi+0x69],dword 0x72615f74
0000177B  7261              jc 0x17de
0000177D  7900              jns 0x177f
0000177F  2E66696E695F61    imul bp,[cs:esi+0x69],word 0x615f
00001786  7272              jc 0x17fa
00001788  61                popad
00001789  7900              jns 0x178b
0000178B  2E6A63            cs push byte +0x63
0000178E  7200              jc 0x1790
00001790  2E64796E          fs jns 0x1802
00001794  61                popad
00001795  6D                insd
00001796  6963002E676F74    imul esp,[ebx+0x0],dword 0x746f672e
0000179D  2E706C            cs jo 0x180c
000017A0  7400              jz 0x17a2
000017A2  2E6461            fs popad
000017A5  7461              jz 0x1808
000017A7  002E              add [esi],ch
000017A9  62                db 0x62
000017AA  7373              jnc 0x181f
000017AC  002E              add [esi],ch
000017AE  636F6D            arpl [edi+0x6d],bp
000017B1  6D                insd
000017B2  656E              gs outsb
000017B4  7400              jz 0x17b6
000017B6  0000              add [eax],al
000017B8  0000              add [eax],al
000017BA  0000              add [eax],al
000017BC  0000              add [eax],al
000017BE  0000              add [eax],al
000017C0  0000              add [eax],al
000017C2  0000              add [eax],al
000017C4  0000              add [eax],al
000017C6  0000              add [eax],al
000017C8  0000              add [eax],al
000017CA  0000              add [eax],al
000017CC  0000              add [eax],al
000017CE  0000              add [eax],al
000017D0  0000              add [eax],al
000017D2  0000              add [eax],al
000017D4  0000              add [eax],al
000017D6  0000              add [eax],al
000017D8  0000              add [eax],al
000017DA  0000              add [eax],al
000017DC  0000              add [eax],al
000017DE  0000              add [eax],al
000017E0  1B00              sbb eax,[eax]
000017E2  0000              add [eax],al
000017E4  0100              add [eax],eax
000017E6  0000              add [eax],al
000017E8  0200              add al,[eax]
000017EA  0000              add [eax],al
000017EC  54                push esp
000017ED  81040854010000    add dword [eax+ecx],0x154
000017F4  1300              adc eax,[eax]
000017F6  0000              add [eax],al
000017F8  0000              add [eax],al
000017FA  0000              add [eax],al
000017FC  0000              add [eax],al
000017FE  0000              add [eax],al
00001800  0100              add [eax],eax
00001802  0000              add [eax],al
00001804  0000              add [eax],al
00001806  0000              add [eax],al
00001808  2300              and eax,[eax]
0000180A  0000              add [eax],al
0000180C  07                pop es
0000180D  0000              add [eax],al
0000180F  0002              add [edx],al
00001811  0000              add [eax],al
00001813  006881            add [eax-0x7f],ch
00001816  0408              add al,0x8
00001818  6801000020        push dword 0x20000001
0000181D  0000              add [eax],al
0000181F  0000              add [eax],al
00001821  0000              add [eax],al
00001823  0000              add [eax],al
00001825  0000              add [eax],al
00001827  000400            add [eax+eax],al
0000182A  0000              add [eax],al
0000182C  0000              add [eax],al
0000182E  0000              add [eax],al
00001830  3100              xor [eax],eax
00001832  0000              add [eax],al
00001834  07                pop es
00001835  0000              add [eax],al
00001837  0002              add [edx],al
00001839  0000              add [eax],al
0000183B  008881040888      add [eax-0x77f7fb7f],cl
00001841  0100              add [eax],eax
00001843  002400            add [eax+eax],ah
00001846  0000              add [eax],al
00001848  0000              add [eax],al
0000184A  0000              add [eax],al
0000184C  0000              add [eax],al
0000184E  0000              add [eax],al
00001850  0400              add al,0x0
00001852  0000              add [eax],al
00001854  0000              add [eax],al
00001856  0000              add [eax],al
00001858  44                inc esp
00001859  0000              add [eax],al
0000185B  00F6              add dh,dh
0000185D  FF                db 0xff
0000185E  FF6F02            jmp dword far [edi+0x2]
00001861  0000              add [eax],al
00001863  00AC810408AC01    add [ecx+eax*4+0x1ac0804],ch
0000186A  0000              add [eax],al
0000186C  2000              and [eax],al
0000186E  0000              add [eax],al
00001870  0500000000        add eax,0x0
00001875  0000              add [eax],al
00001877  000400            add [eax+eax],al
0000187A  0000              add [eax],al
0000187C  0400              add al,0x0
0000187E  0000              add [eax],al
00001880  4E                dec esi
00001881  0000              add [eax],al
00001883  000B              add [ebx],cl
00001885  0000              add [eax],al
00001887  0002              add [edx],al
00001889  0000              add [eax],al
0000188B  00CC              add ah,cl
0000188D  810408CC010000    add dword [eax+ecx],0x1cc
00001894  40                inc eax
00001895  0000              add [eax],al
00001897  0006              add [esi],al
00001899  0000              add [eax],al
0000189B  0001              add [ecx],al
0000189D  0000              add [eax],al
0000189F  000400            add [eax+eax],al
000018A2  0000              add [eax],al
000018A4  1000              adc [eax],al
000018A6  0000              add [eax],al
000018A8  56                push esi
000018A9  0000              add [eax],al
000018AB  0003              add [ebx],al
000018AD  0000              add [eax],al
000018AF  0002              add [edx],al
000018B1  0000              add [eax],al
000018B3  000C82            add [edx+eax*4],cl
000018B6  0408              add al,0x8
000018B8  0C02              or al,0x2
000018BA  0000              add [eax],al
000018BC  45                inc ebp
000018BD  0000              add [eax],al
000018BF  0000              add [eax],al
000018C1  0000              add [eax],al
000018C3  0000              add [eax],al
000018C5  0000              add [eax],al
000018C7  0001              add [ecx],al
000018C9  0000              add [eax],al
000018CB  0000              add [eax],al
000018CD  0000              add [eax],al
000018CF  005E00            add [esi+0x0],bl
000018D2  0000              add [eax],al
000018D4  FF                db 0xff
000018D5  FF                db 0xff
000018D6  FF6F02            jmp dword far [edi+0x2]
000018D9  0000              add [eax],al
000018DB  005282            add [edx-0x7e],dl
000018DE  0408              add al,0x8
000018E0  52                push edx
000018E1  0200              add al,[eax]
000018E3  0008              add [eax],cl
000018E5  0000              add [eax],al
000018E7  000500000000      add [dword 0x0],al
000018ED  0000              add [eax],al
000018EF  0002              add [edx],al
000018F1  0000              add [eax],al
000018F3  0002              add [edx],al
000018F5  0000              add [eax],al
000018F7  006B00            add [ebx+0x0],ch
000018FA  0000              add [eax],al
000018FC  FE                db 0xfe
000018FD  FF                db 0xff
000018FE  FF6F02            jmp dword far [edi+0x2]
00001901  0000              add [eax],al
00001903  005C8204          add [edx+eax*4+0x4],bl
00001907  085C0200          or [edx+eax+0x0],bl
0000190B  0020              add [eax],ah
0000190D  0000              add [eax],al
0000190F  0006              add [esi],al
00001911  0000              add [eax],al
00001913  0001              add [ecx],al
00001915  0000              add [eax],al
00001917  000400            add [eax+eax],al
0000191A  0000              add [eax],al
0000191C  0000              add [eax],al
0000191E  0000              add [eax],al
00001920  7A00              jpe 0x1922
00001922  0000              add [eax],al
00001924  0900              or [eax],eax
00001926  0000              add [eax],al
00001928  0200              add al,[eax]
0000192A  0000              add [eax],al
0000192C  7C82              jl 0x18b0
0000192E  0408              add al,0x8
00001930  7C02              jl 0x1934
00001932  0000              add [eax],al
00001934  0800              or [eax],al
00001936  0000              add [eax],al
00001938  0500000000        add eax,0x0
0000193D  0000              add [eax],al
0000193F  000400            add [eax+eax],al
00001942  0000              add [eax],al
00001944  0800              or [eax],al
00001946  0000              add [eax],al
00001948  830000            add dword [eax],byte +0x0
0000194B  0009              add [ecx],cl
0000194D  0000              add [eax],al
0000194F  004200            add [edx+0x0],al
00001952  0000              add [eax],al
00001954  848204088402      test [edx+0x2840804],al
0000195A  0000              add [eax],al
0000195C  0800              or [eax],al
0000195E  0000              add [eax],al
00001960  0500000018        add eax,0x18000000
00001965  0000              add [eax],al
00001967  000400            add [eax+eax],al
0000196A  0000              add [eax],al
0000196C  0800              or [eax],al
0000196E  0000              add [eax],al
00001970  8C00              mov [eax],es
00001972  0000              add [eax],al
00001974  0100              add [eax],eax
00001976  0000              add [eax],al
00001978  06                push es
00001979  0000              add [eax],al
0000197B  008C8204088C02    add [edx+eax*4+0x28c0804],cl
00001982  0000              add [eax],al
00001984  2300              and eax,[eax]
00001986  0000              add [eax],al
00001988  0000              add [eax],al
0000198A  0000              add [eax],al
0000198C  0000              add [eax],al
0000198E  0000              add [eax],al
00001990  0400              add al,0x0
00001992  0000              add [eax],al
00001994  0000              add [eax],al
00001996  0000              add [eax],al
00001998  8700              xchg eax,[eax]
0000199A  0000              add [eax],al
0000199C  0100              add [eax],eax
0000199E  0000              add [eax],al
000019A0  06                push es
000019A1  0000              add [eax],al
000019A3  00B0820408B0      add [eax-0x4ff7fb7e],dh
000019A9  0200              add al,[eax]
000019AB  0020              add [eax],ah
000019AD  0000              add [eax],al
000019AF  0000              add [eax],al
000019B1  0000              add [eax],al
000019B3  0000              add [eax],al
000019B5  0000              add [eax],al
000019B7  0010              add [eax],dl
000019B9  0000              add [eax],al
000019BB  000400            add [eax+eax],al
000019BE  0000              add [eax],al
000019C0  92                xchg eax,edx
000019C1  0000              add [eax],al
000019C3  0001              add [ecx],al
000019C5  0000              add [eax],al
000019C7  0006              add [esi],al
000019C9  0000              add [eax],al
000019CB  00D0              add al,dl
000019CD  82                db 0x82
000019CE  0408              add al,0x8
000019D0  D002              rol byte [edx],1
000019D2  0000              add [eax],al
000019D4  0800              or [eax],al
000019D6  0000              add [eax],al
000019D8  0000              add [eax],al
000019DA  0000              add [eax],al
000019DC  0000              add [eax],al
000019DE  0000              add [eax],al
000019E0  0800              or [eax],al
000019E2  0000              add [eax],al
000019E4  0000              add [eax],al
000019E6  0000              add [eax],al
000019E8  9B0000            wait add [eax],al
000019EB  0001              add [ecx],al
000019ED  0000              add [eax],al
000019EF  0006              add [esi],al
000019F1  0000              add [eax],al
000019F3  00E0              add al,ah
000019F5  82                db 0x82
000019F6  0408              add al,0x8
000019F8  E002              loopne 0x19fc
000019FA  0000              add [eax],al
000019FC  7201              jc 0x19ff
000019FE  0000              add [eax],al
00001A00  0000              add [eax],al
00001A02  0000              add [eax],al
00001A04  0000              add [eax],al
00001A06  0000              add [eax],al
00001A08  1000              adc [eax],al
00001A0A  0000              add [eax],al
00001A0C  0000              add [eax],al
00001A0E  0000              add [eax],al
00001A10  A100000001        mov eax,[0x1000000]
00001A15  0000              add [eax],al
00001A17  0006              add [esi],al
00001A19  0000              add [eax],al
00001A1B  00548404          add [esp+eax*4+0x4],dl
00001A1F  08540400          or [esp+eax+0x0],dl
00001A23  001400            add [eax+eax],dl
00001A26  0000              add [eax],al
00001A28  0000              add [eax],al
00001A2A  0000              add [eax],al
00001A2C  0000              add [eax],al
00001A2E  0000              add [eax],al
00001A30  0400              add al,0x0
00001A32  0000              add [eax],al
00001A34  0000              add [eax],al
00001A36  0000              add [eax],al
00001A38  A7                cmpsd
00001A39  0000              add [eax],al
00001A3B  0001              add [ecx],al
00001A3D  0000              add [eax],al
00001A3F  0002              add [edx],al
00001A41  0000              add [eax],al
00001A43  006884            add [eax-0x7c],ch
00001A46  0408              add al,0x8
00001A48  6804000008        push dword 0x8000004
00001A4D  0000              add [eax],al
00001A4F  0000              add [eax],al
00001A51  0000              add [eax],al
00001A53  0000              add [eax],al
00001A55  0000              add [eax],al
00001A57  000400            add [eax+eax],al
00001A5A  0000              add [eax],al
00001A5C  0000              add [eax],al
00001A5E  0000              add [eax],al
00001A60  AF                scasd
00001A61  0000              add [eax],al
00001A63  0001              add [ecx],al
00001A65  0000              add [eax],al
00001A67  0002              add [edx],al
00001A69  0000              add [eax],al
00001A6B  007084            add [eax-0x7c],dh
00001A6E  0408              add al,0x8
00001A70  7004              jo 0x1a76
00001A72  0000              add [eax],al
00001A74  2C00              sub al,0x0
00001A76  0000              add [eax],al
00001A78  0000              add [eax],al
00001A7A  0000              add [eax],al
00001A7C  0000              add [eax],al
00001A7E  0000              add [eax],al
00001A80  0400              add al,0x0
00001A82  0000              add [eax],al
00001A84  0000              add [eax],al
00001A86  0000              add [eax],al
00001A88  BD00000001        mov ebp,0x1000000
00001A8D  0000              add [eax],al
00001A8F  0002              add [edx],al
00001A91  0000              add [eax],al
00001A93  009C8404089C04    add [esp+eax*4+0x49c0804],bl
00001A9A  0000              add [eax],al
00001A9C  C00000            rol byte [eax],byte 0x0
00001A9F  0000              add [eax],al
00001AA1  0000              add [eax],al
00001AA3  0000              add [eax],al
00001AA5  0000              add [eax],al
00001AA7  000400            add [eax+eax],al
00001AAA  0000              add [eax],al
00001AAC  0000              add [eax],al
00001AAE  0000              add [eax],al
00001AB0  C70000000E00      mov dword [eax],0xe0000
00001AB6  0000              add [eax],al
00001AB8  0300              add eax,[eax]
00001ABA  0000              add [eax],al
00001ABC  089F0408080F      or [edi+0xf080804],bl
00001AC2  0000              add [eax],al
00001AC4  0400              add al,0x0
00001AC6  0000              add [eax],al
00001AC8  0000              add [eax],al
00001ACA  0000              add [eax],al
00001ACC  0000              add [eax],al
00001ACE  0000              add [eax],al
00001AD0  0400              add al,0x0
00001AD2  0000              add [eax],al
00001AD4  0000              add [eax],al
00001AD6  0000              add [eax],al
00001AD8  D300              rol dword [eax],cl
00001ADA  0000              add [eax],al
00001ADC  0F0000            sldt [eax]
00001ADF  0003              add [ebx],al
00001AE1  0000              add [eax],al
00001AE3  000C9F            add [edi+ebx*4],cl
00001AE6  0408              add al,0x8
00001AE8  0C0F              or al,0xf
00001AEA  0000              add [eax],al
00001AEC  0400              add al,0x0
00001AEE  0000              add [eax],al
00001AF0  0000              add [eax],al
00001AF2  0000              add [eax],al
00001AF4  0000              add [eax],al
00001AF6  0000              add [eax],al
00001AF8  0400              add al,0x0
00001AFA  0000              add [eax],al
00001AFC  0000              add [eax],al
00001AFE  0000              add [eax],al
00001B00  DF00              fild word [eax]
00001B02  0000              add [eax],al
00001B04  0100              add [eax],eax
00001B06  0000              add [eax],al
00001B08  0300              add eax,[eax]
00001B0A  0000              add [eax],al
00001B0C  109F0408100F      adc [edi+0xf100804],bl
00001B12  0000              add [eax],al
00001B14  0400              add al,0x0
00001B16  0000              add [eax],al
00001B18  0000              add [eax],al
00001B1A  0000              add [eax],al
00001B1C  0000              add [eax],al
00001B1E  0000              add [eax],al
00001B20  0400              add al,0x0
00001B22  0000              add [eax],al
00001B24  0000              add [eax],al
00001B26  0000              add [eax],al
00001B28  E400              in al,0x0
00001B2A  0000              add [eax],al
00001B2C  06                push es
00001B2D  0000              add [eax],al
00001B2F  0003              add [ebx],al
00001B31  0000              add [eax],al
00001B33  00149F            add [edi+ebx*4],dl
00001B36  0408              add al,0x8
00001B38  140F              adc al,0xf
00001B3A  0000              add [eax],al
00001B3C  E800000006        call dword 0x6001b41
00001B41  0000              add [eax],al
00001B43  0000              add [eax],al
00001B45  0000              add [eax],al
00001B47  000400            add [eax+eax],al
00001B4A  0000              add [eax],al
00001B4C  0800              or [eax],al
00001B4E  0000              add [eax],al
00001B50  96                xchg eax,esi
00001B51  0000              add [eax],al
00001B53  0001              add [ecx],al
00001B55  0000              add [eax],al
00001B57  0003              add [ebx],al
00001B59  0000              add [eax],al
00001B5B  00FC              add ah,bh
00001B5D  9F                lahf
00001B5E  0408              add al,0x8
00001B60  FC                cld
00001B61  0F0000            sldt [eax]
00001B64  0400              add al,0x0
00001B66  0000              add [eax],al
00001B68  0000              add [eax],al
00001B6A  0000              add [eax],al
00001B6C  0000              add [eax],al
00001B6E  0000              add [eax],al
00001B70  0400              add al,0x0
00001B72  0000              add [eax],al
00001B74  0400              add al,0x0
00001B76  0000              add [eax],al
00001B78  ED                in eax,dx
00001B79  0000              add [eax],al
00001B7B  0001              add [ecx],al
00001B7D  0000              add [eax],al
00001B7F  0003              add [ebx],al
00001B81  0000              add [eax],al
00001B83  0000              add [eax],al
00001B85  A004080010        mov al,[0x10000804]
00001B8A  0000              add [eax],al
00001B8C  1000              adc [eax],al
00001B8E  0000              add [eax],al
00001B90  0000              add [eax],al
00001B92  0000              add [eax],al
00001B94  0000              add [eax],al
00001B96  0000              add [eax],al
00001B98  0400              add al,0x0
00001B9A  0000              add [eax],al
00001B9C  0400              add al,0x0
00001B9E  0000              add [eax],al
00001BA0  F60000            test byte [eax],0x0
00001BA3  0001              add [ecx],al
00001BA5  0000              add [eax],al
00001BA7  0003              add [ebx],al
00001BA9  0000              add [eax],al
00001BAB  0010              add [eax],dl
00001BAD  A004081010        mov al,[0x10100804]
00001BB2  0000              add [eax],al
00001BB4  0800              or [eax],al
00001BB6  0000              add [eax],al
00001BB8  0000              add [eax],al
00001BBA  0000              add [eax],al
00001BBC  0000              add [eax],al
00001BBE  0000              add [eax],al
00001BC0  0400              add al,0x0
00001BC2  0000              add [eax],al
00001BC4  0000              add [eax],al
00001BC6  0000              add [eax],al
00001BC8  FC                cld
00001BC9  0000              add [eax],al
00001BCB  0008              add [eax],cl
00001BCD  0000              add [eax],al
00001BCF  0003              add [ebx],al
00001BD1  0000              add [eax],al
00001BD3  0018              add [eax],bl
00001BD5  A004081810        mov al,[0x10180804]
00001BDA  0000              add [eax],al
00001BDC  0400              add al,0x0
00001BDE  0000              add [eax],al
00001BE0  0000              add [eax],al
00001BE2  0000              add [eax],al
00001BE4  0000              add [eax],al
00001BE6  0000              add [eax],al
00001BE8  0100              add [eax],eax
00001BEA  0000              add [eax],al
00001BEC  0000              add [eax],al
00001BEE  0000              add [eax],al
00001BF0  0101              add [ecx],eax
00001BF2  0000              add [eax],al
00001BF4  0100              add [eax],eax
00001BF6  0000              add [eax],al
00001BF8  3000              xor [eax],al
00001BFA  0000              add [eax],al
00001BFC  0000              add [eax],al
00001BFE  0000              add [eax],al
00001C00  1810              sbb [eax],dl
00001C02  0000              add [eax],al
00001C04  3500000000        xor eax,0x0
00001C09  0000              add [eax],al
00001C0B  0000              add [eax],al
00001C0D  0000              add [eax],al
00001C0F  0001              add [ecx],al
00001C11  0000              add [eax],al
00001C13  0001              add [ecx],al
00001C15  0000              add [eax],al
00001C17  0011              add [ecx],dl
00001C19  0000              add [eax],al
00001C1B  0003              add [ebx],al
00001C1D  0000              add [eax],al
00001C1F  0000              add [eax],al
00001C21  0000              add [eax],al
00001C23  0000              add [eax],al
00001C25  0000              add [eax],al
00001C27  00AC1600000A01    add [esi+edx+0x10a0000],ch
00001C2E  0000              add [eax],al
00001C30  0000              add [eax],al
00001C32  0000              add [eax],al
00001C34  0000              add [eax],al
00001C36  0000              add [eax],al
00001C38  0100              add [eax],eax
00001C3A  0000              add [eax],al
00001C3C  0000              add [eax],al
00001C3E  0000              add [eax],al
00001C40  0100              add [eax],eax
00001C42  0000              add [eax],al
00001C44  0200              add al,[eax]
00001C46  0000              add [eax],al
00001C48  0000              add [eax],al
00001C4A  0000              add [eax],al
00001C4C  0000              add [eax],al
00001C4E  0000              add [eax],al
00001C50  50                push eax
00001C51  1000              adc [eax],al
00001C53  004004            add [eax+0x4],al
00001C56  0000              add [eax],al
00001C58  1E                push ds
00001C59  0000              add [eax],al
00001C5B  002F              add [edi],ch
00001C5D  0000              add [eax],al
00001C5F  000400            add [eax+eax],al
00001C62  0000              add [eax],al
00001C64  1000              adc [eax],al
00001C66  0000              add [eax],al
00001C68  0900              or [eax],eax
00001C6A  0000              add [eax],al
00001C6C  0300              add eax,[eax]
00001C6E  0000              add [eax],al
00001C70  0000              add [eax],al
00001C72  0000              add [eax],al
00001C74  0000              add [eax],al
00001C76  0000              add [eax],al
00001C78  90                nop
00001C79  1400              adc al,0x0
00001C7B  001C02            add [edx+eax],bl
00001C7E  0000              add [eax],al
00001C80  0000              add [eax],al
00001C82  0000              add [eax],al
00001C84  0000              add [eax],al
00001C86  0000              add [eax],al
00001C88  0100              add [eax],eax
00001C8A  0000              add [eax],al
00001C8C  0000              add [eax],al
00001C8E  0000              add [eax],al
